	.file	"\306\325\315\250\270\337\313\271\317\373\310\245OpenMP.cpp"
	.text
	.section .rdata,"dr"
_ZStL19piecewise_construct:
	.space 1
_ZStL13allocator_arg:
	.space 1
_ZStL6ignore:
	.space 1
.lcomm _ZStL8__ioinit,1,1
	.align 4
_ZN9__gnu_cxxL21__default_lock_policyE:
	.long	2
	.section	.text$_ZNKSt6chrono8durationIxSt5ratioILx1ELx1000000000EEE5countEv,"x"
	.linkonce discard
	.align 2
	.globl	_ZNKSt6chrono8durationIxSt5ratioILx1ELx1000000000EEE5countEv
	.def	_ZNKSt6chrono8durationIxSt5ratioILx1ELx1000000000EEE5countEv;	.scl	2;	.type	32;	.endef
	.seh_proc	_ZNKSt6chrono8durationIxSt5ratioILx1ELx1000000000EEE5countEv
_ZNKSt6chrono8durationIxSt5ratioILx1ELx1000000000EEE5countEv:
.LFB6062:
	pushq	%rbp
	.seh_pushreg	%rbp
	movq	%rsp, %rbp
	.seh_setframe	%rbp, 0
	.seh_endprologue
	movq	%rcx, 16(%rbp)
	movq	16(%rbp), %rax
	movq	(%rax), %rax
	popq	%rbp
	ret
	.seh_endproc
	.section	.text$_ZNSt6chrono8durationIxSt5ratioILx1ELx1000000000EEEC1IxvEERKT_,"x"
	.linkonce discard
	.align 2
	.globl	_ZNSt6chrono8durationIxSt5ratioILx1ELx1000000000EEEC1IxvEERKT_
	.def	_ZNSt6chrono8durationIxSt5ratioILx1ELx1000000000EEEC1IxvEERKT_;	.scl	2;	.type	32;	.endef
	.seh_proc	_ZNSt6chrono8durationIxSt5ratioILx1ELx1000000000EEEC1IxvEERKT_
_ZNSt6chrono8durationIxSt5ratioILx1ELx1000000000EEEC1IxvEERKT_:
.LFB6066:
	pushq	%rbp
	.seh_pushreg	%rbp
	movq	%rsp, %rbp
	.seh_setframe	%rbp, 0
	.seh_endprologue
	movq	%rcx, 16(%rbp)
	movq	%rdx, 24(%rbp)
	movq	24(%rbp), %rax
	movq	(%rax), %rdx
	movq	16(%rbp), %rax
	movq	%rdx, (%rax)
	nop
	popq	%rbp
	ret
	.seh_endproc
	.section .rdata,"dr"
_ZStL10defer_lock:
	.space 1
_ZStL11try_to_lock:
	.space 1
_ZStL10adopt_lock:
	.space 1
	.align 4
_ZNSt15regex_constantsL5icaseE:
	.long	1
	.align 4
_ZNSt15regex_constantsL6nosubsE:
	.long	2
	.align 4
_ZNSt15regex_constantsL8optimizeE:
	.long	4
	.align 4
_ZNSt15regex_constantsL7collateE:
	.long	8
	.align 4
_ZNSt15regex_constantsL10ECMAScriptE:
	.long	16
	.align 4
_ZNSt15regex_constantsL5basicE:
	.long	32
	.align 4
_ZNSt15regex_constantsL8extendedE:
	.long	64
	.align 4
_ZNSt15regex_constantsL3awkE:
	.long	128
	.align 4
_ZNSt15regex_constantsL4grepE:
	.long	256
	.align 4
_ZNSt15regex_constantsL5egrepE:
	.long	512
	.align 4
_ZNSt15regex_constantsL12__polynomialE:
	.long	1024
	.align 4
_ZNSt15regex_constantsL13match_defaultE:
	.space 4
	.align 4
_ZNSt15regex_constantsL13match_not_bolE:
	.long	1
	.align 4
_ZNSt15regex_constantsL13match_not_eolE:
	.long	2
	.align 4
_ZNSt15regex_constantsL13match_not_bowE:
	.long	4
	.align 4
_ZNSt15regex_constantsL13match_not_eowE:
	.long	8
	.align 4
_ZNSt15regex_constantsL9match_anyE:
	.long	16
	.align 4
_ZNSt15regex_constantsL14match_not_nullE:
	.long	32
	.align 4
_ZNSt15regex_constantsL16match_continuousE:
	.long	64
	.align 4
_ZNSt15regex_constantsL16match_prev_availE:
	.long	128
	.align 4
_ZNSt15regex_constantsL14format_defaultE:
	.space 4
	.align 4
_ZNSt15regex_constantsL10format_sedE:
	.long	256
	.align 4
_ZNSt15regex_constantsL14format_no_copyE:
	.long	512
	.align 4
_ZNSt15regex_constantsL17format_first_onlyE:
	.long	1024
	.align 4
_ZNSt15regex_constantsL13error_collateE:
	.space 4
	.align 4
_ZNSt15regex_constantsL11error_ctypeE:
	.long	1
	.align 4
_ZNSt15regex_constantsL12error_escapeE:
	.long	2
	.align 4
_ZNSt15regex_constantsL13error_backrefE:
	.long	3
	.align 4
_ZNSt15regex_constantsL11error_brackE:
	.long	4
	.align 4
_ZNSt15regex_constantsL11error_parenE:
	.long	5
	.align 4
_ZNSt15regex_constantsL11error_braceE:
	.long	6
	.align 4
_ZNSt15regex_constantsL14error_badbraceE:
	.long	7
	.align 4
_ZNSt15regex_constantsL11error_rangeE:
	.long	8
	.align 4
_ZNSt15regex_constantsL11error_spaceE:
	.long	9
	.align 4
_ZNSt15regex_constantsL15error_badrepeatE:
	.long	10
	.align 4
_ZNSt15regex_constantsL16error_complexityE:
	.long	11
	.align 4
_ZNSt15regex_constantsL11error_stackE:
	.long	12
	.align 4
_ZNSt8__detailL19_S_invalid_state_idE:
	.long	-1
.lcomm _ZL3gen,2504,32
	.text
	.globl	_Z16get_random_floatv
	.def	_Z16get_random_floatv;	.scl	2;	.type	32;	.endef
	.seh_proc	_Z16get_random_floatv
_Z16get_random_floatv:
.LFB8753:
	pushq	%rbp
	.seh_pushreg	%rbp
	movq	%rsp, %rbp
	.seh_setframe	%rbp, 0
	subq	$48, %rsp
	.seh_stackalloc	48
	.seh_endprologue
	vmovsd	.LC0(%rip), %xmm0
	leaq	-16(%rbp), %rax
	vmovapd	%xmm0, %xmm2
	vxorpd	%xmm1, %xmm1, %xmm1
	movq	%rax, %rcx
	call	_ZNSt25uniform_real_distributionIdEC1Edd
	leaq	-16(%rbp), %rax
	leaq	_ZL3gen(%rip), %rdx
	movq	%rax, %rcx
	call	_ZNSt25uniform_real_distributionIdEclISt23mersenne_twister_engineIjLy32ELy624ELy397ELy31ELj2567483615ELy11ELj4294967295ELy7ELj2636928640ELy15ELj4022730752ELy18ELj1812433253EEEEdRT_
	vcvtsd2ss	%xmm0, %xmm0, %xmm0
	addq	$48, %rsp
	popq	%rbp
	ret
	.seh_endproc
	.globl	_Z14get_random_inti
	.def	_Z14get_random_inti;	.scl	2;	.type	32;	.endef
	.seh_proc	_Z14get_random_inti
_Z14get_random_inti:
.LFB8754:
	pushq	%rbp
	.seh_pushreg	%rbp
	movq	%rsp, %rbp
	.seh_setframe	%rbp, 0
	subq	$48, %rsp
	.seh_stackalloc	48
	.seh_endprologue
	movl	%ecx, 16(%rbp)
	movl	16(%rbp), %eax
	leal	-1(%rax), %edx
	leaq	-8(%rbp), %rax
	movl	%edx, %r8d
	movl	$0, %edx
	movq	%rax, %rcx
	call	_ZNSt24uniform_int_distributionIiEC1Eii
	leaq	-8(%rbp), %rax
	leaq	_ZL3gen(%rip), %rdx
	movq	%rax, %rcx
	call	_ZNSt24uniform_int_distributionIiEclISt23mersenne_twister_engineIjLy32ELy624ELy397ELy31ELj2567483615ELy11ELj4294967295ELy7ELj2636928640ELy15ELj4022730752ELy18ELj1812433253EEEEiRT_
	nop
	addq	$48, %rsp
	popq	%rbp
	ret
	.seh_endproc
	.globl	_Z5printPPfi
	.def	_Z5printPPfi;	.scl	2;	.type	32;	.endef
	.seh_proc	_Z5printPPfi
_Z5printPPfi:
.LFB8755:
	pushq	%rbp
	.seh_pushreg	%rbp
	movq	%rsp, %rbp
	.seh_setframe	%rbp, 0
	subq	$48, %rsp
	.seh_stackalloc	48
	.seh_endprologue
	movq	%rcx, 16(%rbp)
	movl	%edx, 24(%rbp)
	movl	$0, -4(%rbp)
.L12:
	movl	-4(%rbp), %eax
	cmpl	24(%rbp), %eax
	jge	.L13
	movl	$0, -8(%rbp)
.L11:
	movl	-8(%rbp), %eax
	cmpl	24(%rbp), %eax
	jge	.L10
	movl	-4(%rbp), %eax
	cltq
	leaq	0(,%rax,8), %rdx
	movq	16(%rbp), %rax
	addq	%rdx, %rax
	movq	(%rax), %rax
	movl	-8(%rbp), %edx
	movslq	%edx, %rdx
	salq	$2, %rdx
	addq	%rdx, %rax
	vmovss	(%rax), %xmm0
	vmovaps	%xmm0, %xmm1
	movq	.refptr._ZSt4cout(%rip), %rcx
	call	_ZNSolsEf
	movl	$32, %edx
	movq	%rax, %rcx
	call	_ZStlsISt11char_traitsIcEERSt13basic_ostreamIcT_ES5_c
	incl	-8(%rbp)
	jmp	.L11
.L10:
	movq	.refptr._ZSt4endlIcSt11char_traitsIcEERSt13basic_ostreamIT_T0_ES6_(%rip), %rdx
	movq	.refptr._ZSt4cout(%rip), %rcx
	call	_ZNSolsEPFRSoS_E
	incl	-4(%rbp)
	jmp	.L12
.L13:
	nop
	addq	$48, %rsp
	popq	%rbp
	ret
	.seh_endproc
	.globl	_Z5resetPPfi
	.def	_Z5resetPPfi;	.scl	2;	.type	32;	.endef
	.seh_proc	_Z5resetPPfi
_Z5resetPPfi:
.LFB8756:
	pushq	%rbp
	.seh_pushreg	%rbp
	pushq	%rbx
	.seh_pushreg	%rbx
	subq	$56, %rsp
	.seh_stackalloc	56
	leaq	128(%rsp), %rbp
	.seh_setframe	%rbp, 128
	.seh_endprologue
	movq	%rcx, -48(%rbp)
	movl	%edx, -40(%rbp)
	movl	$0, -84(%rbp)
.L18:
	movl	-84(%rbp), %eax
	cmpl	-40(%rbp), %eax
	jge	.L19
	movl	$0, -88(%rbp)
.L17:
	movl	-88(%rbp), %eax
	cmpl	-40(%rbp), %eax
	jge	.L16
	movl	-84(%rbp), %eax
	cltq
	leaq	0(,%rax,8), %rdx
	movq	-48(%rbp), %rax
	addq	%rdx, %rax
	movq	(%rax), %rax
	movl	-88(%rbp), %edx
	movslq	%edx, %rdx
	salq	$2, %rdx
	leaq	(%rax,%rdx), %rbx
	call	_Z16get_random_floatv
	vmovd	%xmm0, %eax
	movl	%eax, (%rbx)
	incl	-88(%rbp)
	jmp	.L17
.L16:
	incl	-84(%rbp)
	jmp	.L18
.L19:
	nop
	addq	$56, %rsp
	popq	%rbx
	popq	%rbp
	ret
	.seh_endproc
	.globl	A
	.bss
	.align 8
A:
	.space 8
	.globl	n
	.align 4
n:
	.space 4
	.text
	.globl	_Z2LUv
	.def	_Z2LUv;	.scl	2;	.type	32;	.endef
	.seh_proc	_Z2LUv
_Z2LUv:
.LFB8757:
	pushq	%rbp
	.seh_pushreg	%rbp
	movq	%rsp, %rbp
	.seh_setframe	%rbp, 0
	subq	$48, %rsp
	.seh_stackalloc	48
	.seh_endprologue
	movb	$1, -1(%rbp)
	cmpb	$0, -1(%rbp)
	je	.L21
	movl	$4, %eax
	jmp	.L22
.L21:
	movl	$1, %eax
.L22:
	movl	$0, %r9d
	movl	%eax, %r8d
	movl	$0, %edx
	leaq	_Z2LUv._omp_fn.0(%rip), %rcx
	call	GOMP_parallel
	nop
	addq	$48, %rsp
	popq	%rbp
	ret
	.seh_endproc
	.section	.text$_ZNSt6chrono13duration_castINS_8durationIdSt5ratioILx1ELx1000EEEExS2_ILx1ELx1000000000EEEENSt9enable_ifIXsrNS_13__is_durationIT_EE5valueES8_E4typeERKNS1_IT0_T1_EE,"x"
	.linkonce discard
	.globl	_ZNSt6chrono13duration_castINS_8durationIdSt5ratioILx1ELx1000EEEExS2_ILx1ELx1000000000EEEENSt9enable_ifIXsrNS_13__is_durationIT_EE5valueES8_E4typeERKNS1_IT0_T1_EE
	.def	_ZNSt6chrono13duration_castINS_8durationIdSt5ratioILx1ELx1000EEEExS2_ILx1ELx1000000000EEEENSt9enable_ifIXsrNS_13__is_durationIT_EE5valueES8_E4typeERKNS1_IT0_T1_EE;	.scl	2;	.type	32;	.endef
	.seh_proc	_ZNSt6chrono13duration_castINS_8durationIdSt5ratioILx1ELx1000EEEExS2_ILx1ELx1000000000EEEENSt9enable_ifIXsrNS_13__is_durationIT_EE5valueES8_E4typeERKNS1_IT0_T1_EE
_ZNSt6chrono13duration_castINS_8durationIdSt5ratioILx1ELx1000EEEExS2_ILx1ELx1000000000EEEENSt9enable_ifIXsrNS_13__is_durationIT_EE5valueES8_E4typeERKNS1_IT0_T1_EE:
.LFB8759:
	pushq	%rbp
	.seh_pushreg	%rbp
	movq	%rsp, %rbp
	.seh_setframe	%rbp, 0
	subq	$32, %rsp
	.seh_stackalloc	32
	.seh_endprologue
	movq	%rcx, 16(%rbp)
	movq	16(%rbp), %rcx
	call	_ZNSt6chrono20__duration_cast_implINS_8durationIdSt5ratioILx1ELx1000EEEES2_ILx1ELx1000000EEdLb1ELb0EE6__castIxS2_ILx1ELx1000000000EEEES4_RKNS1_IT_T0_EE
	vmovq	%xmm0, %rax
	vmovq	%rax, %xmm0
	addq	$32, %rsp
	popq	%rbp
	ret
	.seh_endproc
	.section	.text$_ZNSt6chronomiINS_3_V212system_clockENS_8durationIxSt5ratioILx1ELx1000000000EEEES6_EENSt11common_typeIJT0_T1_EE4typeERKNS_10time_pointIT_S8_EERKNSC_ISD_S9_EE,"x"
	.linkonce discard
	.globl	_ZNSt6chronomiINS_3_V212system_clockENS_8durationIxSt5ratioILx1ELx1000000000EEEES6_EENSt11common_typeIJT0_T1_EE4typeERKNS_10time_pointIT_S8_EERKNSC_ISD_S9_EE
	.def	_ZNSt6chronomiINS_3_V212system_clockENS_8durationIxSt5ratioILx1ELx1000000000EEEES6_EENSt11common_typeIJT0_T1_EE4typeERKNS_10time_pointIT_S8_EERKNSC_ISD_S9_EE;	.scl	2;	.type	32;	.endef
	.seh_proc	_ZNSt6chronomiINS_3_V212system_clockENS_8durationIxSt5ratioILx1ELx1000000000EEEES6_EENSt11common_typeIJT0_T1_EE4typeERKNS_10time_pointIT_S8_EERKNSC_ISD_S9_EE
_ZNSt6chronomiINS_3_V212system_clockENS_8durationIxSt5ratioILx1ELx1000000000EEEES6_EENSt11common_typeIJT0_T1_EE4typeERKNS_10time_pointIT_S8_EERKNSC_ISD_S9_EE:
.LFB8760:
	pushq	%rbp
	.seh_pushreg	%rbp
	movq	%rsp, %rbp
	.seh_setframe	%rbp, 0
	subq	$48, %rsp
	.seh_stackalloc	48
	.seh_endprologue
	movq	%rcx, 16(%rbp)
	movq	%rdx, 24(%rbp)
	movq	24(%rbp), %rax
	movq	%rax, %rcx
	call	_ZNKSt6chrono10time_pointINS_3_V212system_clockENS_8durationIxSt5ratioILx1ELx1000000000EEEEE16time_since_epochEv
	movq	%rax, -16(%rbp)
	movq	16(%rbp), %rcx
	call	_ZNKSt6chrono10time_pointINS_3_V212system_clockENS_8durationIxSt5ratioILx1ELx1000000000EEEEE16time_since_epochEv
	movq	%rax, -8(%rbp)
	leaq	-16(%rbp), %rdx
	leaq	-8(%rbp), %rax
	movq	%rax, %rcx
	call	_ZNSt6chronomiIxSt5ratioILx1ELx1000000000EExS2_EENSt11common_typeIJNS_8durationIT_T0_EENS4_IT1_T2_EEEE4typeERKS7_RKSA_
	nop
	addq	$48, %rsp
	popq	%rbp
	ret
	.seh_endproc
	.section	.text$_ZNSt6chronomiIxSt5ratioILx1ELx1000000000EExS2_EENSt11common_typeIJNS_8durationIT_T0_EENS4_IT1_T2_EEEE4typeERKS7_RKSA_,"x"
	.linkonce discard
	.globl	_ZNSt6chronomiIxSt5ratioILx1ELx1000000000EExS2_EENSt11common_typeIJNS_8durationIT_T0_EENS4_IT1_T2_EEEE4typeERKS7_RKSA_
	.def	_ZNSt6chronomiIxSt5ratioILx1ELx1000000000EExS2_EENSt11common_typeIJNS_8durationIT_T0_EENS4_IT1_T2_EEEE4typeERKS7_RKSA_;	.scl	2;	.type	32;	.endef
	.seh_proc	_ZNSt6chronomiIxSt5ratioILx1ELx1000000000EExS2_EENSt11common_typeIJNS_8durationIT_T0_EENS4_IT1_T2_EEEE4typeERKS7_RKSA_
_ZNSt6chronomiIxSt5ratioILx1ELx1000000000EExS2_EENSt11common_typeIJNS_8durationIT_T0_EENS4_IT1_T2_EEEE4typeERKS7_RKSA_:
.LFB8761:
	pushq	%rbp
	.seh_pushreg	%rbp
	pushq	%rbx
	.seh_pushreg	%rbx
	subq	$72, %rsp
	.seh_stackalloc	72
	leaq	128(%rsp), %rbp
	.seh_setframe	%rbp, 128
	.seh_endprologue
	movq	%rcx, -32(%rbp)
	movq	%rdx, -24(%rbp)
	movq	-32(%rbp), %rax
	movq	(%rax), %rax
	movq	%rax, -80(%rbp)
	leaq	-80(%rbp), %rax
	movq	%rax, %rcx
	call	_ZNKSt6chrono8durationIxSt5ratioILx1ELx1000000000EEE5countEv
	movq	%rax, %rbx
	movq	-24(%rbp), %rax
	movq	(%rax), %rax
	movq	%rax, -72(%rbp)
	leaq	-72(%rbp), %rax
	movq	%rax, %rcx
	call	_ZNKSt6chrono8durationIxSt5ratioILx1ELx1000000000EEE5countEv
	subq	%rax, %rbx
	movq	%rbx, %rax
	movq	%rax, -88(%rbp)
	leaq	-88(%rbp), %rdx
	leaq	-96(%rbp), %rax
	movq	%rax, %rcx
	call	_ZNSt6chrono8durationIxSt5ratioILx1ELx1000000000EEEC1IxvEERKT_
	movq	-96(%rbp), %rax
	addq	$72, %rsp
	popq	%rbx
	popq	%rbp
	ret
	.seh_endproc
	.section	.text$_ZNKSt6chrono10time_pointINS_3_V212system_clockENS_8durationIxSt5ratioILx1ELx1000000000EEEEE16time_since_epochEv,"x"
	.linkonce discard
	.align 2
	.globl	_ZNKSt6chrono10time_pointINS_3_V212system_clockENS_8durationIxSt5ratioILx1ELx1000000000EEEEE16time_since_epochEv
	.def	_ZNKSt6chrono10time_pointINS_3_V212system_clockENS_8durationIxSt5ratioILx1ELx1000000000EEEEE16time_since_epochEv;	.scl	2;	.type	32;	.endef
	.seh_proc	_ZNKSt6chrono10time_pointINS_3_V212system_clockENS_8durationIxSt5ratioILx1ELx1000000000EEEEE16time_since_epochEv
_ZNKSt6chrono10time_pointINS_3_V212system_clockENS_8durationIxSt5ratioILx1ELx1000000000EEEEE16time_since_epochEv:
.LFB8762:
	pushq	%rbp
	.seh_pushreg	%rbp
	movq	%rsp, %rbp
	.seh_setframe	%rbp, 0
	.seh_endprologue
	movq	%rcx, 16(%rbp)
	movq	16(%rbp), %rax
	movq	(%rax), %rax
	popq	%rbp
	ret
	.seh_endproc
	.def	__main;	.scl	2;	.type	32;	.endef
	.section .rdata,"dr"
.LC2:
	.ascii "Size = \0"
.LC3:
	.ascii ": \0"
.LC4:
	.ascii "ms\0"
	.text
	.globl	main
	.def	main;	.scl	2;	.type	32;	.endef
	.seh_proc	main
main:
.LFB8758:
	pushq	%rbp
	.seh_pushreg	%rbp
	pushq	%rsi
	.seh_pushreg	%rsi
	pushq	%rbx
	.seh_pushreg	%rbx
	movq	%rsp, %rbp
	.seh_setframe	%rbp, 0
	subq	$144, %rsp
	.seh_stackalloc	144
	.seh_endprologue
	call	__main
	leaq	._72(%rip), %rbx
	movl	$5, %esi
	leaq	-25(%rbp), %rax
	movq	%rax, %rcx
	call	_ZNSaIiEC1Ev
	movq	%rbx, -112(%rbp)
	movq	%rsi, -104(%rbp)
	leaq	-25(%rbp), %rcx
	leaq	-112(%rbp), %rdx
	leaq	-64(%rbp), %rax
	movq	%rcx, %r8
	movq	%rax, %rcx
.LEHB0:
	call	_ZNSt6vectorIiSaIiEEC1ESt16initializer_listIiERKS0_
.LEHE0:
	leaq	-25(%rbp), %rax
	movq	%rax, %rcx
	call	_ZNSaIiED1Ev
	movl	$0, -4(%rbp)
.L43:
	cmpl	$4, -4(%rbp)
	jg	.L32
	movl	-4(%rbp), %eax
	movslq	%eax, %rdx
	leaq	-64(%rbp), %rax
	movq	%rax, %rcx
	call	_ZNSt6vectorIiSaIiEEixEy
	movl	(%rax), %eax
	movl	%eax, n(%rip)
	movl	n(%rip), %eax
	cltq
	movabsq	$1152921504606846975, %rdx
	cmpq	%rdx, %rax
	ja	.L33
	salq	$3, %rax
	movq	%rax, %rcx
.LEHB1:
	call	_Znay
	jmp	.L49
.L33:
	call	__cxa_throw_bad_array_new_length
.L49:
	movq	%rax, A(%rip)
	movl	$0, -8(%rbp)
.L38:
	movl	n(%rip), %eax
	cmpl	%eax, -8(%rbp)
	jge	.L35
	movl	n(%rip), %eax
	cltq
	movabsq	$2305843009213693950, %rdx
	cmpq	%rdx, %rax
	ja	.L36
	salq	$2, %rax
	movq	A(%rip), %rdx
	movl	-8(%rbp), %ecx
	movslq	%ecx, %rcx
	salq	$3, %rcx
	leaq	(%rdx,%rcx), %rbx
	movq	%rax, %rcx
	call	_Znay
	jmp	.L52
.L36:
	call	__cxa_throw_bad_array_new_length
.L52:
	movq	%rax, (%rbx)
	incl	-8(%rbp)
	jmp	.L38
.L35:
	movl	n(%rip), %edx
	movq	A(%rip), %rax
	movq	%rax, %rcx
	call	_Z5resetPPfi
	call	_ZNSt6chrono3_V212system_clock3nowEv
	movq	%rax, -72(%rbp)
	call	_Z2LUv
	call	_ZNSt6chrono3_V212system_clock3nowEv
	movq	%rax, -80(%rbp)
	leaq	-72(%rbp), %rdx
	leaq	-80(%rbp), %rax
	movq	%rax, %rcx
	call	_ZNSt6chronomiINS_3_V212system_clockENS_8durationIxSt5ratioILx1ELx1000000000EEEES6_EENSt11common_typeIJT0_T1_EE4typeERKNS_10time_pointIT_S8_EERKNSC_ISD_S9_EE
	movq	%rax, -24(%rbp)
	leaq	-24(%rbp), %rax
	movq	%rax, %rcx
	call	_ZNSt6chrono13duration_castINS_8durationIdSt5ratioILx1ELx1000EEEExS2_ILx1ELx1000000000EEEENSt9enable_ifIXsrNS_13__is_durationIT_EE5valueES8_E4typeERKNS1_IT0_T1_EE
	vmovq	%xmm0, %rax
	vmovq	%rax, %xmm0
	vmovsd	%xmm0, -88(%rbp)
	leaq	.LC2(%rip), %rdx
	movq	.refptr._ZSt4cout(%rip), %rcx
	call	_ZStlsISt11char_traitsIcEERSt13basic_ostreamIcT_ES5_PKc
	movq	%rax, %rcx
	movl	n(%rip), %eax
	movl	%eax, %edx
	call	_ZNSolsEi
	leaq	.LC3(%rip), %rdx
	movq	%rax, %rcx
	call	_ZStlsISt11char_traitsIcEERSt13basic_ostreamIcT_ES5_PKc
	movq	%rax, %rbx
	leaq	-88(%rbp), %rax
	movq	%rax, %rcx
	call	_ZNKSt6chrono8durationIdSt5ratioILx1ELx1000EEE5countEv
	vmovq	%xmm0, %rax
	vmovq	%rax, %xmm1
	movq	%rbx, %rcx
	call	_ZNSolsEd
	leaq	.LC4(%rip), %rdx
	movq	%rax, %rcx
	call	_ZStlsISt11char_traitsIcEERSt13basic_ostreamIcT_ES5_PKc
	movq	.refptr._ZSt4endlIcSt11char_traitsIcEERSt13basic_ostreamIT_T0_ES6_(%rip), %rdx
	movq	%rax, %rcx
	call	_ZNSolsEPFRSoS_E
.LEHE1:
	movl	$0, -12(%rbp)
.L41:
	movl	n(%rip), %eax
	cmpl	%eax, -12(%rbp)
	jge	.L39
	movq	A(%rip), %rax
	movl	-12(%rbp), %edx
	movslq	%edx, %rdx
	salq	$3, %rdx
	addq	%rdx, %rax
	movq	(%rax), %rax
	testq	%rax, %rax
	je	.L40
	movq	A(%rip), %rax
	movl	-12(%rbp), %edx
	movslq	%edx, %rdx
	salq	$3, %rdx
	addq	%rdx, %rax
	movq	(%rax), %rax
	movq	%rax, %rcx
	call	_ZdaPv
.L40:
	incl	-12(%rbp)
	jmp	.L41
.L39:
	movq	A(%rip), %rax
	testq	%rax, %rax
	je	.L42
	movq	A(%rip), %rax
	movq	%rax, %rcx
	call	_ZdaPv
.L42:
	incl	-4(%rbp)
	jmp	.L43
.L32:
	movl	$0, %ebx
	leaq	-64(%rbp), %rax
	movq	%rax, %rcx
	call	_ZNSt6vectorIiSaIiEED1Ev
	movl	%ebx, %eax
	jmp	.L51
.L47:
	movq	%rax, %rbx
	leaq	-25(%rbp), %rax
	movq	%rax, %rcx
	call	_ZNSaIiED1Ev
	movq	%rbx, %rax
	movq	%rax, %rcx
.LEHB2:
	call	_Unwind_Resume
.L48:
	movq	%rax, %rbx
	leaq	-64(%rbp), %rax
	movq	%rax, %rcx
	call	_ZNSt6vectorIiSaIiEED1Ev
	movq	%rbx, %rax
	movq	%rax, %rcx
	call	_Unwind_Resume
.LEHE2:
.L51:
	addq	$144, %rsp
	popq	%rbx
	popq	%rsi
	popq	%rbp
	ret
	.def	__gxx_personality_seh0;	.scl	2;	.type	32;	.endef
	.seh_handler	__gxx_personality_seh0, @unwind, @except
	.seh_handlerdata
.LLSDA8758:
	.byte	0xff
	.byte	0xff
	.byte	0x1
	.uleb128 .LLSDACSE8758-.LLSDACSB8758
.LLSDACSB8758:
	.uleb128 .LEHB0-.LFB8758
	.uleb128 .LEHE0-.LEHB0
	.uleb128 .L47-.LFB8758
	.uleb128 0
	.uleb128 .LEHB1-.LFB8758
	.uleb128 .LEHE1-.LEHB1
	.uleb128 .L48-.LFB8758
	.uleb128 0
	.uleb128 .LEHB2-.LFB8758
	.uleb128 .LEHE2-.LEHB2
	.uleb128 0
	.uleb128 0
.LLSDACSE8758:
	.text
	.seh_endproc
	.section	.text$_ZNSt23mersenne_twister_engineIjLy32ELy624ELy397ELy31ELj2567483615ELy11ELj4294967295ELy7ELj2636928640ELy15ELj4022730752ELy18ELj1812433253EEC1Ej,"x"
	.linkonce discard
	.align 2
	.globl	_ZNSt23mersenne_twister_engineIjLy32ELy624ELy397ELy31ELj2567483615ELy11ELj4294967295ELy7ELj2636928640ELy15ELj4022730752ELy18ELj1812433253EEC1Ej
	.def	_ZNSt23mersenne_twister_engineIjLy32ELy624ELy397ELy31ELj2567483615ELy11ELj4294967295ELy7ELj2636928640ELy15ELj4022730752ELy18ELj1812433253EEC1Ej;	.scl	2;	.type	32;	.endef
	.seh_proc	_ZNSt23mersenne_twister_engineIjLy32ELy624ELy397ELy31ELj2567483615ELy11ELj4294967295ELy7ELj2636928640ELy15ELj4022730752ELy18ELj1812433253EEC1Ej
_ZNSt23mersenne_twister_engineIjLy32ELy624ELy397ELy31ELj2567483615ELy11ELj4294967295ELy7ELj2636928640ELy15ELj4022730752ELy18ELj1812433253EEC1Ej:
.LFB9322:
	pushq	%rbp
	.seh_pushreg	%rbp
	movq	%rsp, %rbp
	.seh_setframe	%rbp, 0
	subq	$32, %rsp
	.seh_stackalloc	32
	.seh_endprologue
	movq	%rcx, 16(%rbp)
	movl	%edx, 24(%rbp)
	movl	24(%rbp), %eax
	movl	%eax, %edx
	movq	16(%rbp), %rcx
	call	_ZNSt23mersenne_twister_engineIjLy32ELy624ELy397ELy31ELj2567483615ELy11ELj4294967295ELy7ELj2636928640ELy15ELj4022730752ELy18ELj1812433253EE4seedEj
	nop
	addq	$32, %rsp
	popq	%rbp
	ret
	.seh_endproc
	.section	.text$_ZNSt25uniform_real_distributionIdEC1Edd,"x"
	.linkonce discard
	.align 2
	.globl	_ZNSt25uniform_real_distributionIdEC1Edd
	.def	_ZNSt25uniform_real_distributionIdEC1Edd;	.scl	2;	.type	32;	.endef
	.seh_proc	_ZNSt25uniform_real_distributionIdEC1Edd
_ZNSt25uniform_real_distributionIdEC1Edd:
.LFB9325:
	pushq	%rbp
	.seh_pushreg	%rbp
	movq	%rsp, %rbp
	.seh_setframe	%rbp, 0
	subq	$32, %rsp
	.seh_stackalloc	32
	.seh_endprologue
	movq	%rcx, 16(%rbp)
	vmovsd	%xmm1, 24(%rbp)
	vmovsd	%xmm2, 32(%rbp)
	movq	16(%rbp), %rax
	vmovsd	32(%rbp), %xmm1
	vmovsd	24(%rbp), %xmm0
	vmovapd	%xmm1, %xmm2
	vmovapd	%xmm0, %xmm1
	movq	%rax, %rcx
	call	_ZNSt25uniform_real_distributionIdE10param_typeC1Edd
	nop
	addq	$32, %rsp
	popq	%rbp
	ret
	.seh_endproc
	.section	.text$_ZNSt25uniform_real_distributionIdEclISt23mersenne_twister_engineIjLy32ELy624ELy397ELy31ELj2567483615ELy11ELj4294967295ELy7ELj2636928640ELy15ELj4022730752ELy18ELj1812433253EEEEdRT_,"x"
	.linkonce discard
	.align 2
	.globl	_ZNSt25uniform_real_distributionIdEclISt23mersenne_twister_engineIjLy32ELy624ELy397ELy31ELj2567483615ELy11ELj4294967295ELy7ELj2636928640ELy15ELj4022730752ELy18ELj1812433253EEEEdRT_
	.def	_ZNSt25uniform_real_distributionIdEclISt23mersenne_twister_engineIjLy32ELy624ELy397ELy31ELj2567483615ELy11ELj4294967295ELy7ELj2636928640ELy15ELj4022730752ELy18ELj1812433253EEEEdRT_;	.scl	2;	.type	32;	.endef
	.seh_proc	_ZNSt25uniform_real_distributionIdEclISt23mersenne_twister_engineIjLy32ELy624ELy397ELy31ELj2567483615ELy11ELj4294967295ELy7ELj2636928640ELy15ELj4022730752ELy18ELj1812433253EEEEdRT_
_ZNSt25uniform_real_distributionIdEclISt23mersenne_twister_engineIjLy32ELy624ELy397ELy31ELj2567483615ELy11ELj4294967295ELy7ELj2636928640ELy15ELj4022730752ELy18ELj1812433253EEEEdRT_:
.LFB9326:
	pushq	%rbp
	.seh_pushreg	%rbp
	movq	%rsp, %rbp
	.seh_setframe	%rbp, 0
	subq	$32, %rsp
	.seh_stackalloc	32
	.seh_endprologue
	movq	%rcx, 16(%rbp)
	movq	%rdx, 24(%rbp)
	movq	16(%rbp), %rdx
	movq	24(%rbp), %rax
	movq	%rdx, %r8
	movq	%rax, %rdx
	movq	16(%rbp), %rcx
	call	_ZNSt25uniform_real_distributionIdEclISt23mersenne_twister_engineIjLy32ELy624ELy397ELy31ELj2567483615ELy11ELj4294967295ELy7ELj2636928640ELy15ELj4022730752ELy18ELj1812433253EEEEdRT_RKNS0_10param_typeE
	vmovq	%xmm0, %rax
	vmovq	%rax, %xmm0
	addq	$32, %rsp
	popq	%rbp
	ret
	.seh_endproc
	.section	.text$_ZNSt24uniform_int_distributionIiEC1Eii,"x"
	.linkonce discard
	.align 2
	.globl	_ZNSt24uniform_int_distributionIiEC1Eii
	.def	_ZNSt24uniform_int_distributionIiEC1Eii;	.scl	2;	.type	32;	.endef
	.seh_proc	_ZNSt24uniform_int_distributionIiEC1Eii
_ZNSt24uniform_int_distributionIiEC1Eii:
.LFB9329:
	pushq	%rbp
	.seh_pushreg	%rbp
	movq	%rsp, %rbp
	.seh_setframe	%rbp, 0
	subq	$32, %rsp
	.seh_stackalloc	32
	.seh_endprologue
	movq	%rcx, 16(%rbp)
	movl	%edx, 24(%rbp)
	movl	%r8d, 32(%rbp)
	movq	16(%rbp), %rax
	movl	32(%rbp), %ecx
	movl	24(%rbp), %edx
	movl	%ecx, %r8d
	movq	%rax, %rcx
	call	_ZNSt24uniform_int_distributionIiE10param_typeC1Eii
	nop
	addq	$32, %rsp
	popq	%rbp
	ret
	.seh_endproc
	.section	.text$_ZNSt24uniform_int_distributionIiEclISt23mersenne_twister_engineIjLy32ELy624ELy397ELy31ELj2567483615ELy11ELj4294967295ELy7ELj2636928640ELy15ELj4022730752ELy18ELj1812433253EEEEiRT_,"x"
	.linkonce discard
	.align 2
	.globl	_ZNSt24uniform_int_distributionIiEclISt23mersenne_twister_engineIjLy32ELy624ELy397ELy31ELj2567483615ELy11ELj4294967295ELy7ELj2636928640ELy15ELj4022730752ELy18ELj1812433253EEEEiRT_
	.def	_ZNSt24uniform_int_distributionIiEclISt23mersenne_twister_engineIjLy32ELy624ELy397ELy31ELj2567483615ELy11ELj4294967295ELy7ELj2636928640ELy15ELj4022730752ELy18ELj1812433253EEEEiRT_;	.scl	2;	.type	32;	.endef
	.seh_proc	_ZNSt24uniform_int_distributionIiEclISt23mersenne_twister_engineIjLy32ELy624ELy397ELy31ELj2567483615ELy11ELj4294967295ELy7ELj2636928640ELy15ELj4022730752ELy18ELj1812433253EEEEiRT_
_ZNSt24uniform_int_distributionIiEclISt23mersenne_twister_engineIjLy32ELy624ELy397ELy31ELj2567483615ELy11ELj4294967295ELy7ELj2636928640ELy15ELj4022730752ELy18ELj1812433253EEEEiRT_:
.LFB9330:
	pushq	%rbp
	.seh_pushreg	%rbp
	movq	%rsp, %rbp
	.seh_setframe	%rbp, 0
	subq	$32, %rsp
	.seh_stackalloc	32
	.seh_endprologue
	movq	%rcx, 16(%rbp)
	movq	%rdx, 24(%rbp)
	movq	16(%rbp), %rdx
	movq	24(%rbp), %rax
	movq	%rdx, %r8
	movq	%rax, %rdx
	movq	16(%rbp), %rcx
	call	_ZNSt24uniform_int_distributionIiEclISt23mersenne_twister_engineIjLy32ELy624ELy397ELy31ELj2567483615ELy11ELj4294967295ELy7ELj2636928640ELy15ELj4022730752ELy18ELj1812433253EEEEiRT_RKNS0_10param_typeE
	addq	$32, %rsp
	popq	%rbp
	ret
	.seh_endproc
	.section	.text$_ZNSaIiEC1Ev,"x"
	.linkonce discard
	.align 2
	.globl	_ZNSaIiEC1Ev
	.def	_ZNSaIiEC1Ev;	.scl	2;	.type	32;	.endef
	.seh_proc	_ZNSaIiEC1Ev
_ZNSaIiEC1Ev:
.LFB9337:
	pushq	%rbp
	.seh_pushreg	%rbp
	movq	%rsp, %rbp
	.seh_setframe	%rbp, 0
	subq	$32, %rsp
	.seh_stackalloc	32
	.seh_endprologue
	movq	%rcx, 16(%rbp)
	movq	16(%rbp), %rcx
	call	_ZN9__gnu_cxx13new_allocatorIiEC2Ev
	nop
	addq	$32, %rsp
	popq	%rbp
	ret
	.seh_endproc
	.section	.text$_ZNSaIiED2Ev,"x"
	.linkonce discard
	.align 2
	.globl	_ZNSaIiED2Ev
	.def	_ZNSaIiED2Ev;	.scl	2;	.type	32;	.endef
	.seh_proc	_ZNSaIiED2Ev
_ZNSaIiED2Ev:
.LFB9339:
	pushq	%rbp
	.seh_pushreg	%rbp
	movq	%rsp, %rbp
	.seh_setframe	%rbp, 0
	subq	$32, %rsp
	.seh_stackalloc	32
	.seh_endprologue
	movq	%rcx, 16(%rbp)
	movq	16(%rbp), %rcx
	call	_ZN9__gnu_cxx13new_allocatorIiED2Ev
	nop
	addq	$32, %rsp
	popq	%rbp
	ret
	.seh_endproc
	.section	.text$_ZNSaIiED1Ev,"x"
	.linkonce discard
	.align 2
	.globl	_ZNSaIiED1Ev
	.def	_ZNSaIiED1Ev;	.scl	2;	.type	32;	.endef
	.seh_proc	_ZNSaIiED1Ev
_ZNSaIiED1Ev:
.LFB9340:
	pushq	%rbp
	.seh_pushreg	%rbp
	movq	%rsp, %rbp
	.seh_setframe	%rbp, 0
	subq	$32, %rsp
	.seh_stackalloc	32
	.seh_endprologue
	movq	%rcx, 16(%rbp)
	movq	16(%rbp), %rcx
	call	_ZN9__gnu_cxx13new_allocatorIiED2Ev
	nop
	addq	$32, %rsp
	popq	%rbp
	ret
	.seh_endproc
	.section	.text$_ZNSt6vectorIiSaIiEEC1ESt16initializer_listIiERKS0_,"x"
	.linkonce discard
	.align 2
	.globl	_ZNSt6vectorIiSaIiEEC1ESt16initializer_listIiERKS0_
	.def	_ZNSt6vectorIiSaIiEEC1ESt16initializer_listIiERKS0_;	.scl	2;	.type	32;	.endef
	.seh_proc	_ZNSt6vectorIiSaIiEEC1ESt16initializer_listIiERKS0_
_ZNSt6vectorIiSaIiEEC1ESt16initializer_listIiERKS0_:
.LFB9343:
	pushq	%rbp
	.seh_pushreg	%rbp
	pushq	%rsi
	.seh_pushreg	%rsi
	pushq	%rbx
	.seh_pushreg	%rbx
	movq	%rsp, %rbp
	.seh_setframe	%rbp, 0
	subq	$64, %rsp
	.seh_stackalloc	64
	.seh_endprologue
	movq	%rcx, 32(%rbp)
	movq	%rdx, %rbx
	movq	(%rbx), %rax
	movq	8(%rbx), %rdx
	movq	%rax, -32(%rbp)
	movq	%rdx, -24(%rbp)
	movq	%r8, 48(%rbp)
	movq	32(%rbp), %rax
	movq	48(%rbp), %rdx
	movq	%rax, %rcx
	call	_ZNSt12_Vector_baseIiSaIiEEC2ERKS0_
	leaq	-32(%rbp), %rax
	movq	%rax, %rcx
	call	_ZNKSt16initializer_listIiE3endEv
	movq	%rax, %rbx
	leaq	-32(%rbp), %rax
	movq	%rax, %rcx
	call	_ZNKSt16initializer_listIiE5beginEv
	movl	%esi, %r9d
	movq	%rbx, %r8
	movq	%rax, %rdx
	movq	32(%rbp), %rcx
.LEHB3:
	call	_ZNSt6vectorIiSaIiEE19_M_range_initializeIPKiEEvT_S5_St20forward_iterator_tag
.LEHE3:
	jmp	.L66
.L65:
	movq	%rax, %rbx
	movq	32(%rbp), %rax
	movq	%rax, %rcx
	call	_ZNSt12_Vector_baseIiSaIiEED2Ev
	movq	%rbx, %rax
	movq	%rax, %rcx
.LEHB4:
	call	_Unwind_Resume
	nop
.LEHE4:
.L66:
	addq	$64, %rsp
	popq	%rbx
	popq	%rsi
	popq	%rbp
	ret
	.seh_handler	__gxx_personality_seh0, @unwind, @except
	.seh_handlerdata
.LLSDA9343:
	.byte	0xff
	.byte	0xff
	.byte	0x1
	.uleb128 .LLSDACSE9343-.LLSDACSB9343
.LLSDACSB9343:
	.uleb128 .LEHB3-.LFB9343
	.uleb128 .LEHE3-.LEHB3
	.uleb128 .L65-.LFB9343
	.uleb128 0
	.uleb128 .LEHB4-.LFB9343
	.uleb128 .LEHE4-.LEHB4
	.uleb128 0
	.uleb128 0
.LLSDACSE9343:
	.section	.text$_ZNSt6vectorIiSaIiEEC1ESt16initializer_listIiERKS0_,"x"
	.linkonce discard
	.seh_endproc
	.section	.text$_ZNSt6vectorIiSaIiEED1Ev,"x"
	.linkonce discard
	.align 2
	.globl	_ZNSt6vectorIiSaIiEED1Ev
	.def	_ZNSt6vectorIiSaIiEED1Ev;	.scl	2;	.type	32;	.endef
	.seh_proc	_ZNSt6vectorIiSaIiEED1Ev
_ZNSt6vectorIiSaIiEED1Ev:
.LFB9346:
	pushq	%rbp
	.seh_pushreg	%rbp
	movq	%rsp, %rbp
	.seh_setframe	%rbp, 0
	subq	$32, %rsp
	.seh_stackalloc	32
	.seh_endprologue
	movq	%rcx, 16(%rbp)
	movq	16(%rbp), %rax
	movq	%rax, %rcx
	call	_ZNSt12_Vector_baseIiSaIiEE19_M_get_Tp_allocatorEv
	movq	%rax, %rcx
	movq	16(%rbp), %rax
	movq	8(%rax), %rdx
	movq	16(%rbp), %rax
	movq	(%rax), %rax
	movq	%rcx, %r8
	movq	%rax, %rcx
	call	_ZSt8_DestroyIPiiEvT_S1_RSaIT0_E
	movq	16(%rbp), %rax
	movq	%rax, %rcx
	call	_ZNSt12_Vector_baseIiSaIiEED2Ev
	nop
	addq	$32, %rsp
	popq	%rbp
	ret
	.seh_handler	__gxx_personality_seh0, @unwind, @except
	.seh_handlerdata
.LLSDA9346:
	.byte	0xff
	.byte	0xff
	.byte	0x1
	.uleb128 .LLSDACSE9346-.LLSDACSB9346
.LLSDACSB9346:
.LLSDACSE9346:
	.section	.text$_ZNSt6vectorIiSaIiEED1Ev,"x"
	.linkonce discard
	.seh_endproc
	.section	.text$_ZNSt6vectorIiSaIiEEixEy,"x"
	.linkonce discard
	.align 2
	.globl	_ZNSt6vectorIiSaIiEEixEy
	.def	_ZNSt6vectorIiSaIiEEixEy;	.scl	2;	.type	32;	.endef
	.seh_proc	_ZNSt6vectorIiSaIiEEixEy
_ZNSt6vectorIiSaIiEEixEy:
.LFB9347:
	pushq	%rbp
	.seh_pushreg	%rbp
	movq	%rsp, %rbp
	.seh_setframe	%rbp, 0
	.seh_endprologue
	movq	%rcx, 16(%rbp)
	movq	%rdx, 24(%rbp)
	movq	16(%rbp), %rax
	movq	(%rax), %rax
	movq	24(%rbp), %rdx
	salq	$2, %rdx
	addq	%rdx, %rax
	popq	%rbp
	ret
	.seh_endproc
	.section	.text$_ZNSt6chrono20__duration_cast_implINS_8durationIdSt5ratioILx1ELx1000EEEES2_ILx1ELx1000000EEdLb1ELb0EE6__castIxS2_ILx1ELx1000000000EEEES4_RKNS1_IT_T0_EE,"x"
	.linkonce discard
	.globl	_ZNSt6chrono20__duration_cast_implINS_8durationIdSt5ratioILx1ELx1000EEEES2_ILx1ELx1000000EEdLb1ELb0EE6__castIxS2_ILx1ELx1000000000EEEES4_RKNS1_IT_T0_EE
	.def	_ZNSt6chrono20__duration_cast_implINS_8durationIdSt5ratioILx1ELx1000EEEES2_ILx1ELx1000000EEdLb1ELb0EE6__castIxS2_ILx1ELx1000000000EEEES4_RKNS1_IT_T0_EE;	.scl	2;	.type	32;	.endef
	.seh_proc	_ZNSt6chrono20__duration_cast_implINS_8durationIdSt5ratioILx1ELx1000EEEES2_ILx1ELx1000000EEdLb1ELb0EE6__castIxS2_ILx1ELx1000000000EEEES4_RKNS1_IT_T0_EE
_ZNSt6chrono20__duration_cast_implINS_8durationIdSt5ratioILx1ELx1000EEEES2_ILx1ELx1000000EEdLb1ELb0EE6__castIxS2_ILx1ELx1000000000EEEES4_RKNS1_IT_T0_EE:
.LFB9348:
	pushq	%rbp
	.seh_pushreg	%rbp
	movq	%rsp, %rbp
	.seh_setframe	%rbp, 0
	subq	$48, %rsp
	.seh_stackalloc	48
	.seh_endprologue
	movq	%rcx, 16(%rbp)
	movq	16(%rbp), %rcx
	call	_ZNKSt6chrono8durationIxSt5ratioILx1ELx1000000000EEE5countEv
	vcvtsi2sdq	%rax, %xmm0, %xmm0
	vmovsd	.LC5(%rip), %xmm1
	vdivsd	%xmm1, %xmm0, %xmm0
	vmovsd	%xmm0, -8(%rbp)
	leaq	-8(%rbp), %rdx
	leaq	-16(%rbp), %rax
	movq	%rax, %rcx
	call	_ZNSt6chrono8durationIdSt5ratioILx1ELx1000EEEC1IdvEERKT_
	vmovsd	-16(%rbp), %xmm0
	vmovq	%xmm0, %rax
	vmovq	%rax, %xmm0
	addq	$48, %rsp
	popq	%rbp
	ret
	.seh_endproc
	.section	.text$_ZNKSt6chrono8durationIdSt5ratioILx1ELx1000EEE5countEv,"x"
	.linkonce discard
	.align 2
	.globl	_ZNKSt6chrono8durationIdSt5ratioILx1ELx1000EEE5countEv
	.def	_ZNKSt6chrono8durationIdSt5ratioILx1ELx1000EEE5countEv;	.scl	2;	.type	32;	.endef
	.seh_proc	_ZNKSt6chrono8durationIdSt5ratioILx1ELx1000EEE5countEv
_ZNKSt6chrono8durationIdSt5ratioILx1ELx1000EEE5countEv:
.LFB9350:
	pushq	%rbp
	.seh_pushreg	%rbp
	movq	%rsp, %rbp
	.seh_setframe	%rbp, 0
	.seh_endprologue
	movq	%rcx, 16(%rbp)
	movq	16(%rbp), %rax
	vmovsd	(%rax), %xmm0
	vmovq	%xmm0, %rax
	vmovq	%rax, %xmm0
	popq	%rbp
	ret
	.seh_endproc
	.section	.text$_ZNSt23mersenne_twister_engineIjLy32ELy624ELy397ELy31ELj2567483615ELy11ELj4294967295ELy7ELj2636928640ELy15ELj4022730752ELy18ELj1812433253EE4seedEj,"x"
	.linkonce discard
	.align 2
	.globl	_ZNSt23mersenne_twister_engineIjLy32ELy624ELy397ELy31ELj2567483615ELy11ELj4294967295ELy7ELj2636928640ELy15ELj4022730752ELy18ELj1812433253EE4seedEj
	.def	_ZNSt23mersenne_twister_engineIjLy32ELy624ELy397ELy31ELj2567483615ELy11ELj4294967295ELy7ELj2636928640ELy15ELj4022730752ELy18ELj1812433253EE4seedEj;	.scl	2;	.type	32;	.endef
	.seh_proc	_ZNSt23mersenne_twister_engineIjLy32ELy624ELy397ELy31ELj2567483615ELy11ELj4294967295ELy7ELj2636928640ELy15ELj4022730752ELy18ELj1812433253EE4seedEj
_ZNSt23mersenne_twister_engineIjLy32ELy624ELy397ELy31ELj2567483615ELy11ELj4294967295ELy7ELj2636928640ELy15ELj4022730752ELy18ELj1812433253EE4seedEj:
.LFB9646:
	pushq	%rbp
	.seh_pushreg	%rbp
	movq	%rsp, %rbp
	.seh_setframe	%rbp, 0
	subq	$48, %rsp
	.seh_stackalloc	48
	.seh_endprologue
	movq	%rcx, 16(%rbp)
	movl	%edx, 24(%rbp)
	movl	24(%rbp), %eax
	movl	%eax, %ecx
	call	_ZNSt8__detail5__modIjLj0ELj1ELj0EEET_S1_
	movl	%eax, %edx
	movq	16(%rbp), %rax
	movl	%edx, (%rax)
	movq	$1, -8(%rbp)
.L76:
	cmpq	$623, -8(%rbp)
	ja	.L75
	movq	-8(%rbp), %rax
	leaq	-1(%rax), %rdx
	movq	16(%rbp), %rax
	movl	(%rax,%rdx,4), %eax
	movl	%eax, -12(%rbp)
	movl	-12(%rbp), %eax
	shrl	$30, %eax
	xorl	%eax, -12(%rbp)
	movl	-12(%rbp), %eax
	imull	$1812433253, %eax, %eax
	movl	%eax, -12(%rbp)
	movq	-8(%rbp), %rax
	movl	%eax, %ecx
	call	_ZNSt8__detail5__modIjLj624ELj1ELj0EEET_S1_
	addl	%eax, -12(%rbp)
	movl	-12(%rbp), %eax
	movl	%eax, %ecx
	call	_ZNSt8__detail5__modIjLj0ELj1ELj0EEET_S1_
	movl	%eax, %ecx
	movq	16(%rbp), %rax
	movq	-8(%rbp), %rdx
	movl	%ecx, (%rax,%rdx,4)
	incq	-8(%rbp)
	jmp	.L76
.L75:
	movq	16(%rbp), %rax
	movq	$624, 2496(%rax)
	nop
	addq	$48, %rsp
	popq	%rbp
	ret
	.seh_endproc
	.section	.text$_ZNSt25uniform_real_distributionIdE10param_typeC1Edd,"x"
	.linkonce discard
	.align 2
	.globl	_ZNSt25uniform_real_distributionIdE10param_typeC1Edd
	.def	_ZNSt25uniform_real_distributionIdE10param_typeC1Edd;	.scl	2;	.type	32;	.endef
	.seh_proc	_ZNSt25uniform_real_distributionIdE10param_typeC1Edd
_ZNSt25uniform_real_distributionIdE10param_typeC1Edd:
.LFB9649:
	pushq	%rbp
	.seh_pushreg	%rbp
	movq	%rsp, %rbp
	.seh_setframe	%rbp, 0
	.seh_endprologue
	movq	%rcx, 16(%rbp)
	vmovsd	%xmm1, 24(%rbp)
	vmovsd	%xmm2, 32(%rbp)
	movq	16(%rbp), %rax
	vmovsd	24(%rbp), %xmm0
	vmovsd	%xmm0, (%rax)
	movq	16(%rbp), %rax
	vmovsd	32(%rbp), %xmm0
	vmovsd	%xmm0, 8(%rax)
	nop
	popq	%rbp
	ret
	.seh_endproc
	.section	.text$_ZNSt25uniform_real_distributionIdEclISt23mersenne_twister_engineIjLy32ELy624ELy397ELy31ELj2567483615ELy11ELj4294967295ELy7ELj2636928640ELy15ELj4022730752ELy18ELj1812433253EEEEdRT_RKNS0_10param_typeE,"x"
	.linkonce discard
	.align 2
	.globl	_ZNSt25uniform_real_distributionIdEclISt23mersenne_twister_engineIjLy32ELy624ELy397ELy31ELj2567483615ELy11ELj4294967295ELy7ELj2636928640ELy15ELj4022730752ELy18ELj1812433253EEEEdRT_RKNS0_10param_typeE
	.def	_ZNSt25uniform_real_distributionIdEclISt23mersenne_twister_engineIjLy32ELy624ELy397ELy31ELj2567483615ELy11ELj4294967295ELy7ELj2636928640ELy15ELj4022730752ELy18ELj1812433253EEEEdRT_RKNS0_10param_typeE;	.scl	2;	.type	32;	.endef
	.seh_proc	_ZNSt25uniform_real_distributionIdEclISt23mersenne_twister_engineIjLy32ELy624ELy397ELy31ELj2567483615ELy11ELj4294967295ELy7ELj2636928640ELy15ELj4022730752ELy18ELj1812433253EEEEdRT_RKNS0_10param_typeE
_ZNSt25uniform_real_distributionIdEclISt23mersenne_twister_engineIjLy32ELy624ELy397ELy31ELj2567483615ELy11ELj4294967295ELy7ELj2636928640ELy15ELj4022730752ELy18ELj1812433253EEEEdRT_RKNS0_10param_typeE:
.LFB9650:
	pushq	%rbp
	.seh_pushreg	%rbp
	movq	%rsp, %rbp
	.seh_setframe	%rbp, 0
	subq	$80, %rsp
	.seh_stackalloc	80
	vmovaps	%xmm6, -32(%rbp)
	.seh_savexmm	%xmm6, 48
	vmovaps	%xmm7, -16(%rbp)
	.seh_savexmm	%xmm7, 64
	.seh_endprologue
	movq	%rcx, 16(%rbp)
	movq	%rdx, 24(%rbp)
	movq	%r8, 32(%rbp)
	movq	24(%rbp), %rdx
	leaq	-40(%rbp), %rax
	movq	%rax, %rcx
	call	_ZNSt8__detail8_AdaptorISt23mersenne_twister_engineIjLy32ELy624ELy397ELy31ELj2567483615ELy11ELj4294967295ELy7ELj2636928640ELy15ELj4022730752ELy18ELj1812433253EEdEC1ERS2_
	leaq	-40(%rbp), %rax
	movq	%rax, %rcx
	call	_ZNSt8__detail8_AdaptorISt23mersenne_twister_engineIjLy32ELy624ELy397ELy31ELj2567483615ELy11ELj4294967295ELy7ELj2636928640ELy15ELj4022730752ELy18ELj1812433253EEdEclEv
	vmovapd	%xmm0, %xmm7
	movq	32(%rbp), %rax
	movq	%rax, %rcx
	call	_ZNKSt25uniform_real_distributionIdE10param_type1bEv
	vmovapd	%xmm0, %xmm6
	movq	32(%rbp), %rax
	movq	%rax, %rcx
	call	_ZNKSt25uniform_real_distributionIdE10param_type1aEv
	vsubsd	%xmm0, %xmm6, %xmm0
	vmulsd	%xmm0, %xmm7, %xmm6
	movq	32(%rbp), %rax
	movq	%rax, %rcx
	call	_ZNKSt25uniform_real_distributionIdE10param_type1aEv
	vaddsd	%xmm0, %xmm6, %xmm0
	vmovq	%xmm0, %rax
	vmovq	%rax, %xmm0
	vmovaps	-32(%rbp), %xmm6
	vmovaps	-16(%rbp), %xmm7
	addq	$80, %rsp
	popq	%rbp
	ret
	.seh_endproc
	.section	.text$_ZNSt24uniform_int_distributionIiE10param_typeC1Eii,"x"
	.linkonce discard
	.align 2
	.globl	_ZNSt24uniform_int_distributionIiE10param_typeC1Eii
	.def	_ZNSt24uniform_int_distributionIiE10param_typeC1Eii;	.scl	2;	.type	32;	.endef
	.seh_proc	_ZNSt24uniform_int_distributionIiE10param_typeC1Eii
_ZNSt24uniform_int_distributionIiE10param_typeC1Eii:
.LFB9653:
	pushq	%rbp
	.seh_pushreg	%rbp
	movq	%rsp, %rbp
	.seh_setframe	%rbp, 0
	.seh_endprologue
	movq	%rcx, 16(%rbp)
	movl	%edx, 24(%rbp)
	movl	%r8d, 32(%rbp)
	movq	16(%rbp), %rax
	movl	24(%rbp), %edx
	movl	%edx, (%rax)
	movq	16(%rbp), %rax
	movl	32(%rbp), %edx
	movl	%edx, 4(%rax)
	nop
	popq	%rbp
	ret
	.seh_endproc
	.section	.text$_ZNSt23mersenne_twister_engineIjLy32ELy624ELy397ELy31ELj2567483615ELy11ELj4294967295ELy7ELj2636928640ELy15ELj4022730752ELy18ELj1812433253EE3minEv,"x"
	.linkonce discard
	.globl	_ZNSt23mersenne_twister_engineIjLy32ELy624ELy397ELy31ELj2567483615ELy11ELj4294967295ELy7ELj2636928640ELy15ELj4022730752ELy18ELj1812433253EE3minEv
	.def	_ZNSt23mersenne_twister_engineIjLy32ELy624ELy397ELy31ELj2567483615ELy11ELj4294967295ELy7ELj2636928640ELy15ELj4022730752ELy18ELj1812433253EE3minEv;	.scl	2;	.type	32;	.endef
	.seh_proc	_ZNSt23mersenne_twister_engineIjLy32ELy624ELy397ELy31ELj2567483615ELy11ELj4294967295ELy7ELj2636928640ELy15ELj4022730752ELy18ELj1812433253EE3minEv
_ZNSt23mersenne_twister_engineIjLy32ELy624ELy397ELy31ELj2567483615ELy11ELj4294967295ELy7ELj2636928640ELy15ELj4022730752ELy18ELj1812433253EE3minEv:
.LFB9655:
	pushq	%rbp
	.seh_pushreg	%rbp
	movq	%rsp, %rbp
	.seh_setframe	%rbp, 0
	.seh_endprologue
	movl	$0, %eax
	popq	%rbp
	ret
	.seh_endproc
	.section	.text$_ZNSt24uniform_int_distributionIiEclISt23mersenne_twister_engineIjLy32ELy624ELy397ELy31ELj2567483615ELy11ELj4294967295ELy7ELj2636928640ELy15ELj4022730752ELy18ELj1812433253EEEEiRT_RKNS0_10param_typeE,"x"
	.linkonce discard
	.align 2
	.globl	_ZNSt24uniform_int_distributionIiEclISt23mersenne_twister_engineIjLy32ELy624ELy397ELy31ELj2567483615ELy11ELj4294967295ELy7ELj2636928640ELy15ELj4022730752ELy18ELj1812433253EEEEiRT_RKNS0_10param_typeE
	.def	_ZNSt24uniform_int_distributionIiEclISt23mersenne_twister_engineIjLy32ELy624ELy397ELy31ELj2567483615ELy11ELj4294967295ELy7ELj2636928640ELy15ELj4022730752ELy18ELj1812433253EEEEiRT_RKNS0_10param_typeE;	.scl	2;	.type	32;	.endef
	.seh_proc	_ZNSt24uniform_int_distributionIiEclISt23mersenne_twister_engineIjLy32ELy624ELy397ELy31ELj2567483615ELy11ELj4294967295ELy7ELj2636928640ELy15ELj4022730752ELy18ELj1812433253EEEEiRT_RKNS0_10param_typeE
_ZNSt24uniform_int_distributionIiEclISt23mersenne_twister_engineIjLy32ELy624ELy397ELy31ELj2567483615ELy11ELj4294967295ELy7ELj2636928640ELy15ELj4022730752ELy18ELj1812433253EEEEiRT_RKNS0_10param_typeE:
.LFB9654:
	pushq	%rbp
	.seh_pushreg	%rbp
	pushq	%rbx
	.seh_pushreg	%rbx
	subq	$88, %rsp
	.seh_stackalloc	88
	leaq	128(%rsp), %rbp
	.seh_setframe	%rbp, 128
	.seh_endprologue
	movq	%rcx, -16(%rbp)
	movq	%rdx, -8(%rbp)
	movq	%r8, 0(%rbp)
	movl	$0, -56(%rbp)
	movl	$-1, -60(%rbp)
	movl	$-1, -64(%rbp)
	movq	0(%rbp), %rax
	movq	%rax, %rcx
	call	_ZNKSt24uniform_int_distributionIiE10param_type1bEv
	movl	%eax, %ebx
	movq	0(%rbp), %rax
	movq	%rax, %rcx
	call	_ZNKSt24uniform_int_distributionIiE10param_type1aEv
	subl	%eax, %ebx
	movl	%ebx, %eax
	movl	%eax, -68(%rbp)
	cmpl	$-1, -68(%rbp)
	je	.L89
	movl	-68(%rbp), %eax
	incl	%eax
	movl	%eax, -72(%rbp)
	movl	$-1, %eax
	movl	$0, %edx
	divl	-72(%rbp)
	movl	%eax, -76(%rbp)
	movl	-72(%rbp), %eax
	imull	-76(%rbp), %eax
	movl	%eax, -80(%rbp)
.L86:
	movq	-8(%rbp), %rax
	movq	%rax, %rcx
	call	_ZNSt23mersenne_twister_engineIjLy32ELy624ELy397ELy31ELj2567483615ELy11ELj4294967295ELy7ELj2636928640ELy15ELj4022730752ELy18ELj1812433253EEclEv
	movl	%eax, -52(%rbp)
	movl	-52(%rbp), %eax
	cmpl	-80(%rbp), %eax
	jb	.L85
	jmp	.L86
.L85:
	movl	-52(%rbp), %eax
	movl	$0, %edx
	divl	-76(%rbp)
	movl	%eax, -52(%rbp)
	jmp	.L87
.L89:
	movq	-8(%rbp), %rax
	movq	%rax, %rcx
	call	_ZNSt23mersenne_twister_engineIjLy32ELy624ELy397ELy31ELj2567483615ELy11ELj4294967295ELy7ELj2636928640ELy15ELj4022730752ELy18ELj1812433253EEclEv
	movl	%eax, -52(%rbp)
.L87:
	movq	0(%rbp), %rax
	movq	%rax, %rcx
	call	_ZNKSt24uniform_int_distributionIiE10param_type1aEv
	movl	%eax, %edx
	movl	-52(%rbp), %eax
	addl	%edx, %eax
	addq	$88, %rsp
	popq	%rbx
	popq	%rbp
	ret
	.seh_endproc
	.section	.text$_ZN9__gnu_cxx13new_allocatorIiEC2Ev,"x"
	.linkonce discard
	.align 2
	.globl	_ZN9__gnu_cxx13new_allocatorIiEC2Ev
	.def	_ZN9__gnu_cxx13new_allocatorIiEC2Ev;	.scl	2;	.type	32;	.endef
	.seh_proc	_ZN9__gnu_cxx13new_allocatorIiEC2Ev
_ZN9__gnu_cxx13new_allocatorIiEC2Ev:
.LFB9660:
	pushq	%rbp
	.seh_pushreg	%rbp
	movq	%rsp, %rbp
	.seh_setframe	%rbp, 0
	.seh_endprologue
	movq	%rcx, 16(%rbp)
	nop
	popq	%rbp
	ret
	.seh_endproc
	.section	.text$_ZN9__gnu_cxx13new_allocatorIiED2Ev,"x"
	.linkonce discard
	.align 2
	.globl	_ZN9__gnu_cxx13new_allocatorIiED2Ev
	.def	_ZN9__gnu_cxx13new_allocatorIiED2Ev;	.scl	2;	.type	32;	.endef
	.seh_proc	_ZN9__gnu_cxx13new_allocatorIiED2Ev
_ZN9__gnu_cxx13new_allocatorIiED2Ev:
.LFB9663:
	pushq	%rbp
	.seh_pushreg	%rbp
	movq	%rsp, %rbp
	.seh_setframe	%rbp, 0
	.seh_endprologue
	movq	%rcx, 16(%rbp)
	nop
	popq	%rbp
	ret
	.seh_endproc
	.section	.text$_ZNSt12_Vector_baseIiSaIiEE12_Vector_implD1Ev,"x"
	.linkonce discard
	.align 2
	.globl	_ZNSt12_Vector_baseIiSaIiEE12_Vector_implD1Ev
	.def	_ZNSt12_Vector_baseIiSaIiEE12_Vector_implD1Ev;	.scl	2;	.type	32;	.endef
	.seh_proc	_ZNSt12_Vector_baseIiSaIiEE12_Vector_implD1Ev
_ZNSt12_Vector_baseIiSaIiEE12_Vector_implD1Ev:
.LFB9668:
	pushq	%rbp
	.seh_pushreg	%rbp
	movq	%rsp, %rbp
	.seh_setframe	%rbp, 0
	subq	$32, %rsp
	.seh_stackalloc	32
	.seh_endprologue
	movq	%rcx, 16(%rbp)
	movq	16(%rbp), %rcx
	call	_ZNSaIiED2Ev
	nop
	addq	$32, %rsp
	popq	%rbp
	ret
	.seh_endproc
	.section	.text$_ZNSt12_Vector_baseIiSaIiEEC2ERKS0_,"x"
	.linkonce discard
	.align 2
	.globl	_ZNSt12_Vector_baseIiSaIiEEC2ERKS0_
	.def	_ZNSt12_Vector_baseIiSaIiEEC2ERKS0_;	.scl	2;	.type	32;	.endef
	.seh_proc	_ZNSt12_Vector_baseIiSaIiEEC2ERKS0_
_ZNSt12_Vector_baseIiSaIiEEC2ERKS0_:
.LFB9669:
	pushq	%rbp
	.seh_pushreg	%rbp
	movq	%rsp, %rbp
	.seh_setframe	%rbp, 0
	subq	$32, %rsp
	.seh_stackalloc	32
	.seh_endprologue
	movq	%rcx, 16(%rbp)
	movq	%rdx, 24(%rbp)
	movq	16(%rbp), %rax
	movq	24(%rbp), %rdx
	movq	%rax, %rcx
	call	_ZNSt12_Vector_baseIiSaIiEE12_Vector_implC1ERKS0_
	nop
	addq	$32, %rsp
	popq	%rbp
	ret
	.seh_endproc
	.section	.text$_ZNSt12_Vector_baseIiSaIiEED2Ev,"x"
	.linkonce discard
	.align 2
	.globl	_ZNSt12_Vector_baseIiSaIiEED2Ev
	.def	_ZNSt12_Vector_baseIiSaIiEED2Ev;	.scl	2;	.type	32;	.endef
	.seh_proc	_ZNSt12_Vector_baseIiSaIiEED2Ev
_ZNSt12_Vector_baseIiSaIiEED2Ev:
.LFB9672:
	pushq	%rbp
	.seh_pushreg	%rbp
	movq	%rsp, %rbp
	.seh_setframe	%rbp, 0
	subq	$32, %rsp
	.seh_stackalloc	32
	.seh_endprologue
	movq	%rcx, 16(%rbp)
	movq	16(%rbp), %rax
	movq	16(%rax), %rdx
	movq	16(%rbp), %rax
	movq	(%rax), %rax
	subq	%rax, %rdx
	movq	%rdx, %rax
	sarq	$2, %rax
	movq	%rax, %rdx
	movq	16(%rbp), %rax
	movq	(%rax), %rax
	movq	%rdx, %r8
	movq	%rax, %rdx
	movq	16(%rbp), %rcx
	call	_ZNSt12_Vector_baseIiSaIiEE13_M_deallocateEPiy
	movq	16(%rbp), %rax
	movq	%rax, %rcx
	call	_ZNSt12_Vector_baseIiSaIiEE12_Vector_implD1Ev
	nop
	addq	$32, %rsp
	popq	%rbp
	ret
	.seh_handler	__gxx_personality_seh0, @unwind, @except
	.seh_handlerdata
.LLSDA9672:
	.byte	0xff
	.byte	0xff
	.byte	0x1
	.uleb128 .LLSDACSE9672-.LLSDACSB9672
.LLSDACSB9672:
.LLSDACSE9672:
	.section	.text$_ZNSt12_Vector_baseIiSaIiEED2Ev,"x"
	.linkonce discard
	.seh_endproc
	.section	.text$_ZNKSt16initializer_listIiE5beginEv,"x"
	.linkonce discard
	.align 2
	.globl	_ZNKSt16initializer_listIiE5beginEv
	.def	_ZNKSt16initializer_listIiE5beginEv;	.scl	2;	.type	32;	.endef
	.seh_proc	_ZNKSt16initializer_listIiE5beginEv
_ZNKSt16initializer_listIiE5beginEv:
.LFB9674:
	pushq	%rbp
	.seh_pushreg	%rbp
	movq	%rsp, %rbp
	.seh_setframe	%rbp, 0
	.seh_endprologue
	movq	%rcx, 16(%rbp)
	movq	16(%rbp), %rax
	movq	(%rax), %rax
	popq	%rbp
	ret
	.seh_endproc
	.section	.text$_ZNKSt16initializer_listIiE3endEv,"x"
	.linkonce discard
	.align 2
	.globl	_ZNKSt16initializer_listIiE3endEv
	.def	_ZNKSt16initializer_listIiE3endEv;	.scl	2;	.type	32;	.endef
	.seh_proc	_ZNKSt16initializer_listIiE3endEv
_ZNKSt16initializer_listIiE3endEv:
.LFB9675:
	pushq	%rbp
	.seh_pushreg	%rbp
	pushq	%rbx
	.seh_pushreg	%rbx
	subq	$40, %rsp
	.seh_stackalloc	40
	leaq	128(%rsp), %rbp
	.seh_setframe	%rbp, 128
	.seh_endprologue
	movq	%rcx, -64(%rbp)
	movq	-64(%rbp), %rcx
	call	_ZNKSt16initializer_listIiE5beginEv
	movq	%rax, %rbx
	movq	-64(%rbp), %rcx
	call	_ZNKSt16initializer_listIiE4sizeEv
	salq	$2, %rax
	addq	%rbx, %rax
	addq	$40, %rsp
	popq	%rbx
	popq	%rbp
	ret
	.seh_endproc
	.section	.text$_ZNSt6vectorIiSaIiEE19_M_range_initializeIPKiEEvT_S5_St20forward_iterator_tag,"x"
	.linkonce discard
	.align 2
	.globl	_ZNSt6vectorIiSaIiEE19_M_range_initializeIPKiEEvT_S5_St20forward_iterator_tag
	.def	_ZNSt6vectorIiSaIiEE19_M_range_initializeIPKiEEvT_S5_St20forward_iterator_tag;	.scl	2;	.type	32;	.endef
	.seh_proc	_ZNSt6vectorIiSaIiEE19_M_range_initializeIPKiEEvT_S5_St20forward_iterator_tag
_ZNSt6vectorIiSaIiEE19_M_range_initializeIPKiEEvT_S5_St20forward_iterator_tag:
.LFB9676:
	pushq	%rbp
	.seh_pushreg	%rbp
	movq	%rsp, %rbp
	.seh_setframe	%rbp, 0
	subq	$48, %rsp
	.seh_stackalloc	48
	.seh_endprologue
	movq	%rcx, 16(%rbp)
	movq	%rdx, 24(%rbp)
	movq	%r8, 32(%rbp)
	movb	%r9b, 40(%rbp)
	movq	32(%rbp), %rdx
	movq	24(%rbp), %rax
	movq	%rax, %rcx
	call	_ZSt8distanceIPKiENSt15iterator_traitsIT_E15difference_typeES3_S3_
	movq	%rax, -8(%rbp)
	movq	16(%rbp), %rax
	movq	-8(%rbp), %rdx
	movq	%rax, %rcx
	call	_ZNSt12_Vector_baseIiSaIiEE11_M_allocateEy
	movq	%rax, %rdx
	movq	16(%rbp), %rax
	movq	%rdx, (%rax)
	movq	16(%rbp), %rax
	movq	(%rax), %rax
	movq	-8(%rbp), %rdx
	salq	$2, %rdx
	addq	%rax, %rdx
	movq	16(%rbp), %rax
	movq	%rdx, 16(%rax)
	movq	16(%rbp), %rax
	movq	%rax, %rcx
	call	_ZNSt12_Vector_baseIiSaIiEE19_M_get_Tp_allocatorEv
	movq	%rax, %r8
	movq	16(%rbp), %rax
	movq	(%rax), %rcx
	movq	32(%rbp), %rdx
	movq	24(%rbp), %rax
	movq	%r8, %r9
	movq	%rcx, %r8
	movq	%rax, %rcx
	call	_ZSt22__uninitialized_copy_aIPKiPiiET0_T_S4_S3_RSaIT1_E
	movq	%rax, %rdx
	movq	16(%rbp), %rax
	movq	%rdx, 8(%rax)
	nop
	addq	$48, %rsp
	popq	%rbp
	ret
	.seh_endproc
	.section	.text$_ZNSt12_Vector_baseIiSaIiEE19_M_get_Tp_allocatorEv,"x"
	.linkonce discard
	.align 2
	.globl	_ZNSt12_Vector_baseIiSaIiEE19_M_get_Tp_allocatorEv
	.def	_ZNSt12_Vector_baseIiSaIiEE19_M_get_Tp_allocatorEv;	.scl	2;	.type	32;	.endef
	.seh_proc	_ZNSt12_Vector_baseIiSaIiEE19_M_get_Tp_allocatorEv
_ZNSt12_Vector_baseIiSaIiEE19_M_get_Tp_allocatorEv:
.LFB9677:
	pushq	%rbp
	.seh_pushreg	%rbp
	movq	%rsp, %rbp
	.seh_setframe	%rbp, 0
	.seh_endprologue
	movq	%rcx, 16(%rbp)
	movq	16(%rbp), %rax
	popq	%rbp
	ret
	.seh_endproc
	.section	.text$_ZSt8_DestroyIPiiEvT_S1_RSaIT0_E,"x"
	.linkonce discard
	.globl	_ZSt8_DestroyIPiiEvT_S1_RSaIT0_E
	.def	_ZSt8_DestroyIPiiEvT_S1_RSaIT0_E;	.scl	2;	.type	32;	.endef
	.seh_proc	_ZSt8_DestroyIPiiEvT_S1_RSaIT0_E
_ZSt8_DestroyIPiiEvT_S1_RSaIT0_E:
.LFB9678:
	pushq	%rbp
	.seh_pushreg	%rbp
	movq	%rsp, %rbp
	.seh_setframe	%rbp, 0
	subq	$32, %rsp
	.seh_stackalloc	32
	.seh_endprologue
	movq	%rcx, 16(%rbp)
	movq	%rdx, 24(%rbp)
	movq	%r8, 32(%rbp)
	movq	24(%rbp), %rax
	movq	%rax, %rdx
	movq	16(%rbp), %rcx
	call	_ZSt8_DestroyIPiEvT_S1_
	nop
	addq	$32, %rsp
	popq	%rbp
	ret
	.seh_endproc
	.section	.text$_ZNSt6chrono8durationIdSt5ratioILx1ELx1000EEEC1IdvEERKT_,"x"
	.linkonce discard
	.align 2
	.globl	_ZNSt6chrono8durationIdSt5ratioILx1ELx1000EEEC1IdvEERKT_
	.def	_ZNSt6chrono8durationIdSt5ratioILx1ELx1000EEEC1IdvEERKT_;	.scl	2;	.type	32;	.endef
	.seh_proc	_ZNSt6chrono8durationIdSt5ratioILx1ELx1000EEEC1IdvEERKT_
_ZNSt6chrono8durationIdSt5ratioILx1ELx1000EEEC1IdvEERKT_:
.LFB9681:
	pushq	%rbp
	.seh_pushreg	%rbp
	movq	%rsp, %rbp
	.seh_setframe	%rbp, 0
	.seh_endprologue
	movq	%rcx, 16(%rbp)
	movq	%rdx, 24(%rbp)
	movq	24(%rbp), %rax
	vmovsd	(%rax), %xmm0
	movq	16(%rbp), %rax
	vmovsd	%xmm0, (%rax)
	nop
	popq	%rbp
	ret
	.seh_endproc
	.section	.text$_ZNSt8__detail5__modIjLj0ELj1ELj0EEET_S1_,"x"
	.linkonce discard
	.globl	_ZNSt8__detail5__modIjLj0ELj1ELj0EEET_S1_
	.def	_ZNSt8__detail5__modIjLj0ELj1ELj0EEET_S1_;	.scl	2;	.type	32;	.endef
	.seh_proc	_ZNSt8__detail5__modIjLj0ELj1ELj0EEET_S1_
_ZNSt8__detail5__modIjLj0ELj1ELj0EEET_S1_:
.LFB9830:
	pushq	%rbp
	.seh_pushreg	%rbp
	movq	%rsp, %rbp
	.seh_setframe	%rbp, 0
	subq	$32, %rsp
	.seh_stackalloc	32
	.seh_endprologue
	movl	%ecx, 16(%rbp)
	movl	16(%rbp), %ecx
	call	_ZNSt8__detail4_ModIjLj0ELj1ELj0ELb1ELb0EE6__calcEj
	addq	$32, %rsp
	popq	%rbp
	ret
	.seh_endproc
	.section	.text$_ZNSt8__detail5__modIjLj624ELj1ELj0EEET_S1_,"x"
	.linkonce discard
	.globl	_ZNSt8__detail5__modIjLj624ELj1ELj0EEET_S1_
	.def	_ZNSt8__detail5__modIjLj624ELj1ELj0EEET_S1_;	.scl	2;	.type	32;	.endef
	.seh_proc	_ZNSt8__detail5__modIjLj624ELj1ELj0EEET_S1_
_ZNSt8__detail5__modIjLj624ELj1ELj0EEET_S1_:
.LFB9831:
	pushq	%rbp
	.seh_pushreg	%rbp
	movq	%rsp, %rbp
	.seh_setframe	%rbp, 0
	subq	$32, %rsp
	.seh_stackalloc	32
	.seh_endprologue
	movl	%ecx, 16(%rbp)
	movl	16(%rbp), %ecx
	call	_ZNSt8__detail4_ModIjLj624ELj1ELj0ELb1ELb1EE6__calcEj
	addq	$32, %rsp
	popq	%rbp
	ret
	.seh_endproc
	.section	.text$_ZNSt8__detail8_AdaptorISt23mersenne_twister_engineIjLy32ELy624ELy397ELy31ELj2567483615ELy11ELj4294967295ELy7ELj2636928640ELy15ELj4022730752ELy18ELj1812433253EEdEC1ERS2_,"x"
	.linkonce discard
	.align 2
	.globl	_ZNSt8__detail8_AdaptorISt23mersenne_twister_engineIjLy32ELy624ELy397ELy31ELj2567483615ELy11ELj4294967295ELy7ELj2636928640ELy15ELj4022730752ELy18ELj1812433253EEdEC1ERS2_
	.def	_ZNSt8__detail8_AdaptorISt23mersenne_twister_engineIjLy32ELy624ELy397ELy31ELj2567483615ELy11ELj4294967295ELy7ELj2636928640ELy15ELj4022730752ELy18ELj1812433253EEdEC1ERS2_;	.scl	2;	.type	32;	.endef
	.seh_proc	_ZNSt8__detail8_AdaptorISt23mersenne_twister_engineIjLy32ELy624ELy397ELy31ELj2567483615ELy11ELj4294967295ELy7ELj2636928640ELy15ELj4022730752ELy18ELj1812433253EEdEC1ERS2_
_ZNSt8__detail8_AdaptorISt23mersenne_twister_engineIjLy32ELy624ELy397ELy31ELj2567483615ELy11ELj4294967295ELy7ELj2636928640ELy15ELj4022730752ELy18ELj1812433253EEdEC1ERS2_:
.LFB9834:
	pushq	%rbp
	.seh_pushreg	%rbp
	movq	%rsp, %rbp
	.seh_setframe	%rbp, 0
	.seh_endprologue
	movq	%rcx, 16(%rbp)
	movq	%rdx, 24(%rbp)
	movq	16(%rbp), %rax
	movq	24(%rbp), %rdx
	movq	%rdx, (%rax)
	nop
	popq	%rbp
	ret
	.seh_endproc
	.section	.text$_ZNSt8__detail8_AdaptorISt23mersenne_twister_engineIjLy32ELy624ELy397ELy31ELj2567483615ELy11ELj4294967295ELy7ELj2636928640ELy15ELj4022730752ELy18ELj1812433253EEdEclEv,"x"
	.linkonce discard
	.align 2
	.globl	_ZNSt8__detail8_AdaptorISt23mersenne_twister_engineIjLy32ELy624ELy397ELy31ELj2567483615ELy11ELj4294967295ELy7ELj2636928640ELy15ELj4022730752ELy18ELj1812433253EEdEclEv
	.def	_ZNSt8__detail8_AdaptorISt23mersenne_twister_engineIjLy32ELy624ELy397ELy31ELj2567483615ELy11ELj4294967295ELy7ELj2636928640ELy15ELj4022730752ELy18ELj1812433253EEdEclEv;	.scl	2;	.type	32;	.endef
	.seh_proc	_ZNSt8__detail8_AdaptorISt23mersenne_twister_engineIjLy32ELy624ELy397ELy31ELj2567483615ELy11ELj4294967295ELy7ELj2636928640ELy15ELj4022730752ELy18ELj1812433253EEdEclEv
_ZNSt8__detail8_AdaptorISt23mersenne_twister_engineIjLy32ELy624ELy397ELy31ELj2567483615ELy11ELj4294967295ELy7ELj2636928640ELy15ELj4022730752ELy18ELj1812433253EEdEclEv:
.LFB9835:
	pushq	%rbp
	.seh_pushreg	%rbp
	movq	%rsp, %rbp
	.seh_setframe	%rbp, 0
	subq	$32, %rsp
	.seh_stackalloc	32
	.seh_endprologue
	movq	%rcx, 16(%rbp)
	movq	16(%rbp), %rax
	movq	(%rax), %rax
	movq	%rax, %rcx
	call	_ZSt18generate_canonicalIdLy53ESt23mersenne_twister_engineIjLy32ELy624ELy397ELy31ELj2567483615ELy11ELj4294967295ELy7ELj2636928640ELy15ELj4022730752ELy18ELj1812433253EEET_RT1_
	vmovq	%xmm0, %rax
	vmovq	%rax, %xmm0
	addq	$32, %rsp
	popq	%rbp
	ret
	.seh_endproc
	.section	.text$_ZNKSt25uniform_real_distributionIdE10param_type1bEv,"x"
	.linkonce discard
	.align 2
	.globl	_ZNKSt25uniform_real_distributionIdE10param_type1bEv
	.def	_ZNKSt25uniform_real_distributionIdE10param_type1bEv;	.scl	2;	.type	32;	.endef
	.seh_proc	_ZNKSt25uniform_real_distributionIdE10param_type1bEv
_ZNKSt25uniform_real_distributionIdE10param_type1bEv:
.LFB9836:
	pushq	%rbp
	.seh_pushreg	%rbp
	movq	%rsp, %rbp
	.seh_setframe	%rbp, 0
	.seh_endprologue
	movq	%rcx, 16(%rbp)
	movq	16(%rbp), %rax
	vmovsd	8(%rax), %xmm0
	vmovq	%xmm0, %rax
	vmovq	%rax, %xmm0
	popq	%rbp
	ret
	.seh_endproc
	.section	.text$_ZNKSt25uniform_real_distributionIdE10param_type1aEv,"x"
	.linkonce discard
	.align 2
	.globl	_ZNKSt25uniform_real_distributionIdE10param_type1aEv
	.def	_ZNKSt25uniform_real_distributionIdE10param_type1aEv;	.scl	2;	.type	32;	.endef
	.seh_proc	_ZNKSt25uniform_real_distributionIdE10param_type1aEv
_ZNKSt25uniform_real_distributionIdE10param_type1aEv:
.LFB9837:
	pushq	%rbp
	.seh_pushreg	%rbp
	movq	%rsp, %rbp
	.seh_setframe	%rbp, 0
	.seh_endprologue
	movq	%rcx, 16(%rbp)
	movq	16(%rbp), %rax
	vmovsd	(%rax), %xmm0
	vmovq	%xmm0, %rax
	vmovq	%rax, %xmm0
	popq	%rbp
	ret
	.seh_endproc
	.section	.text$_ZNKSt24uniform_int_distributionIiE10param_type1bEv,"x"
	.linkonce discard
	.align 2
	.globl	_ZNKSt24uniform_int_distributionIiE10param_type1bEv
	.def	_ZNKSt24uniform_int_distributionIiE10param_type1bEv;	.scl	2;	.type	32;	.endef
	.seh_proc	_ZNKSt24uniform_int_distributionIiE10param_type1bEv
_ZNKSt24uniform_int_distributionIiE10param_type1bEv:
.LFB9838:
	pushq	%rbp
	.seh_pushreg	%rbp
	movq	%rsp, %rbp
	.seh_setframe	%rbp, 0
	.seh_endprologue
	movq	%rcx, 16(%rbp)
	movq	16(%rbp), %rax
	movl	4(%rax), %eax
	popq	%rbp
	ret
	.seh_endproc
	.section	.text$_ZNKSt24uniform_int_distributionIiE10param_type1aEv,"x"
	.linkonce discard
	.align 2
	.globl	_ZNKSt24uniform_int_distributionIiE10param_type1aEv
	.def	_ZNKSt24uniform_int_distributionIiE10param_type1aEv;	.scl	2;	.type	32;	.endef
	.seh_proc	_ZNKSt24uniform_int_distributionIiE10param_type1aEv
_ZNKSt24uniform_int_distributionIiE10param_type1aEv:
.LFB9839:
	pushq	%rbp
	.seh_pushreg	%rbp
	movq	%rsp, %rbp
	.seh_setframe	%rbp, 0
	.seh_endprologue
	movq	%rcx, 16(%rbp)
	movq	16(%rbp), %rax
	movl	(%rax), %eax
	popq	%rbp
	ret
	.seh_endproc
	.section	.text$_ZNSt23mersenne_twister_engineIjLy32ELy624ELy397ELy31ELj2567483615ELy11ELj4294967295ELy7ELj2636928640ELy15ELj4022730752ELy18ELj1812433253EEclEv,"x"
	.linkonce discard
	.align 2
	.globl	_ZNSt23mersenne_twister_engineIjLy32ELy624ELy397ELy31ELj2567483615ELy11ELj4294967295ELy7ELj2636928640ELy15ELj4022730752ELy18ELj1812433253EEclEv
	.def	_ZNSt23mersenne_twister_engineIjLy32ELy624ELy397ELy31ELj2567483615ELy11ELj4294967295ELy7ELj2636928640ELy15ELj4022730752ELy18ELj1812433253EEclEv;	.scl	2;	.type	32;	.endef
	.seh_proc	_ZNSt23mersenne_twister_engineIjLy32ELy624ELy397ELy31ELj2567483615ELy11ELj4294967295ELy7ELj2636928640ELy15ELj4022730752ELy18ELj1812433253EEclEv
_ZNSt23mersenne_twister_engineIjLy32ELy624ELy397ELy31ELj2567483615ELy11ELj4294967295ELy7ELj2636928640ELy15ELj4022730752ELy18ELj1812433253EEclEv:
.LFB9840:
	pushq	%rbp
	.seh_pushreg	%rbp
	movq	%rsp, %rbp
	.seh_setframe	%rbp, 0
	subq	$48, %rsp
	.seh_stackalloc	48
	.seh_endprologue
	movq	%rcx, 16(%rbp)
	movq	16(%rbp), %rax
	movq	2496(%rax), %rax
	cmpq	$623, %rax
	jbe	.L120
	movq	16(%rbp), %rcx
	call	_ZNSt23mersenne_twister_engineIjLy32ELy624ELy397ELy31ELj2567483615ELy11ELj4294967295ELy7ELj2636928640ELy15ELj4022730752ELy18ELj1812433253EE11_M_gen_randEv
.L120:
	movq	16(%rbp), %rax
	movq	2496(%rax), %rax
	leaq	1(%rax), %rcx
	movq	16(%rbp), %rdx
	movq	%rcx, 2496(%rdx)
	movq	16(%rbp), %rdx
	movl	(%rdx,%rax,4), %eax
	movl	%eax, -4(%rbp)
	movl	-4(%rbp), %eax
	shrl	$11, %eax
	xorl	%eax, -4(%rbp)
	movl	-4(%rbp), %eax
	sall	$7, %eax
	andl	$-1658038656, %eax
	xorl	%eax, -4(%rbp)
	movl	-4(%rbp), %eax
	sall	$15, %eax
	andl	$-272236544, %eax
	xorl	%eax, -4(%rbp)
	movl	-4(%rbp), %eax
	shrl	$18, %eax
	xorl	%eax, -4(%rbp)
	movl	-4(%rbp), %eax
	addq	$48, %rsp
	popq	%rbp
	ret
	.seh_endproc
	.section	.text$_ZNSt12_Vector_baseIiSaIiEE12_Vector_implC1ERKS0_,"x"
	.linkonce discard
	.align 2
	.globl	_ZNSt12_Vector_baseIiSaIiEE12_Vector_implC1ERKS0_
	.def	_ZNSt12_Vector_baseIiSaIiEE12_Vector_implC1ERKS0_;	.scl	2;	.type	32;	.endef
	.seh_proc	_ZNSt12_Vector_baseIiSaIiEE12_Vector_implC1ERKS0_
_ZNSt12_Vector_baseIiSaIiEE12_Vector_implC1ERKS0_:
.LFB9844:
	pushq	%rbp
	.seh_pushreg	%rbp
	movq	%rsp, %rbp
	.seh_setframe	%rbp, 0
	subq	$32, %rsp
	.seh_stackalloc	32
	.seh_endprologue
	movq	%rcx, 16(%rbp)
	movq	%rdx, 24(%rbp)
	movq	24(%rbp), %rax
	movq	%rax, %rdx
	movq	16(%rbp), %rcx
	call	_ZNSaIiEC2ERKS_
	movq	16(%rbp), %rax
	movq	$0, (%rax)
	movq	16(%rbp), %rax
	movq	$0, 8(%rax)
	movq	16(%rbp), %rax
	movq	$0, 16(%rax)
	nop
	addq	$32, %rsp
	popq	%rbp
	ret
	.seh_endproc
	.section	.text$_ZNSt12_Vector_baseIiSaIiEE13_M_deallocateEPiy,"x"
	.linkonce discard
	.align 2
	.globl	_ZNSt12_Vector_baseIiSaIiEE13_M_deallocateEPiy
	.def	_ZNSt12_Vector_baseIiSaIiEE13_M_deallocateEPiy;	.scl	2;	.type	32;	.endef
	.seh_proc	_ZNSt12_Vector_baseIiSaIiEE13_M_deallocateEPiy
_ZNSt12_Vector_baseIiSaIiEE13_M_deallocateEPiy:
.LFB9845:
	pushq	%rbp
	.seh_pushreg	%rbp
	movq	%rsp, %rbp
	.seh_setframe	%rbp, 0
	subq	$32, %rsp
	.seh_stackalloc	32
	.seh_endprologue
	movq	%rcx, 16(%rbp)
	movq	%rdx, 24(%rbp)
	movq	%r8, 32(%rbp)
	cmpq	$0, 24(%rbp)
	je	.L125
	movq	16(%rbp), %rax
	movq	32(%rbp), %rcx
	movq	24(%rbp), %rdx
	movq	%rcx, %r8
	movq	%rax, %rcx
	call	_ZNSt16allocator_traitsISaIiEE10deallocateERS0_Piy
.L125:
	nop
	addq	$32, %rsp
	popq	%rbp
	ret
	.seh_endproc
	.section	.text$_ZNKSt16initializer_listIiE4sizeEv,"x"
	.linkonce discard
	.align 2
	.globl	_ZNKSt16initializer_listIiE4sizeEv
	.def	_ZNKSt16initializer_listIiE4sizeEv;	.scl	2;	.type	32;	.endef
	.seh_proc	_ZNKSt16initializer_listIiE4sizeEv
_ZNKSt16initializer_listIiE4sizeEv:
.LFB9846:
	pushq	%rbp
	.seh_pushreg	%rbp
	movq	%rsp, %rbp
	.seh_setframe	%rbp, 0
	.seh_endprologue
	movq	%rcx, 16(%rbp)
	movq	16(%rbp), %rax
	movq	8(%rax), %rax
	popq	%rbp
	ret
	.seh_endproc
	.section	.text$_ZSt8distanceIPKiENSt15iterator_traitsIT_E15difference_typeES3_S3_,"x"
	.linkonce discard
	.globl	_ZSt8distanceIPKiENSt15iterator_traitsIT_E15difference_typeES3_S3_
	.def	_ZSt8distanceIPKiENSt15iterator_traitsIT_E15difference_typeES3_S3_;	.scl	2;	.type	32;	.endef
	.seh_proc	_ZSt8distanceIPKiENSt15iterator_traitsIT_E15difference_typeES3_S3_
_ZSt8distanceIPKiENSt15iterator_traitsIT_E15difference_typeES3_S3_:
.LFB9847:
	pushq	%rbp
	.seh_pushreg	%rbp
	pushq	%rbx
	.seh_pushreg	%rbx
	subq	$56, %rsp
	.seh_stackalloc	56
	leaq	128(%rsp), %rbp
	.seh_setframe	%rbp, 128
	.seh_endprologue
	movq	%rcx, -48(%rbp)
	movq	%rdx, -40(%rbp)
	leaq	-48(%rbp), %rcx
	call	_ZSt19__iterator_categoryIPKiENSt15iterator_traitsIT_E17iterator_categoryERKS3_
	movq	-48(%rbp), %rax
	movq	-40(%rbp), %rdx
	movl	%ebx, %r8d
	movq	%rax, %rcx
	call	_ZSt10__distanceIPKiENSt15iterator_traitsIT_E15difference_typeES3_S3_St26random_access_iterator_tag
	nop
	addq	$56, %rsp
	popq	%rbx
	popq	%rbp
	ret
	.seh_endproc
	.section	.text$_ZNSt12_Vector_baseIiSaIiEE11_M_allocateEy,"x"
	.linkonce discard
	.align 2
	.globl	_ZNSt12_Vector_baseIiSaIiEE11_M_allocateEy
	.def	_ZNSt12_Vector_baseIiSaIiEE11_M_allocateEy;	.scl	2;	.type	32;	.endef
	.seh_proc	_ZNSt12_Vector_baseIiSaIiEE11_M_allocateEy
_ZNSt12_Vector_baseIiSaIiEE11_M_allocateEy:
.LFB9848:
	pushq	%rbp
	.seh_pushreg	%rbp
	movq	%rsp, %rbp
	.seh_setframe	%rbp, 0
	subq	$32, %rsp
	.seh_stackalloc	32
	.seh_endprologue
	movq	%rcx, 16(%rbp)
	movq	%rdx, 24(%rbp)
	cmpq	$0, 24(%rbp)
	je	.L131
	movq	16(%rbp), %rax
	movq	24(%rbp), %rdx
	movq	%rax, %rcx
	call	_ZNSt16allocator_traitsISaIiEE8allocateERS0_y
	jmp	.L133
.L131:
	movl	$0, %eax
.L133:
	addq	$32, %rsp
	popq	%rbp
	ret
	.seh_endproc
	.section	.text$_ZSt22__uninitialized_copy_aIPKiPiiET0_T_S4_S3_RSaIT1_E,"x"
	.linkonce discard
	.globl	_ZSt22__uninitialized_copy_aIPKiPiiET0_T_S4_S3_RSaIT1_E
	.def	_ZSt22__uninitialized_copy_aIPKiPiiET0_T_S4_S3_RSaIT1_E;	.scl	2;	.type	32;	.endef
	.seh_proc	_ZSt22__uninitialized_copy_aIPKiPiiET0_T_S4_S3_RSaIT1_E
_ZSt22__uninitialized_copy_aIPKiPiiET0_T_S4_S3_RSaIT1_E:
.LFB9849:
	pushq	%rbp
	.seh_pushreg	%rbp
	movq	%rsp, %rbp
	.seh_setframe	%rbp, 0
	subq	$32, %rsp
	.seh_stackalloc	32
	.seh_endprologue
	movq	%rcx, 16(%rbp)
	movq	%rdx, 24(%rbp)
	movq	%r8, 32(%rbp)
	movq	%r9, 40(%rbp)
	movq	32(%rbp), %rdx
	movq	24(%rbp), %rax
	movq	%rdx, %r8
	movq	%rax, %rdx
	movq	16(%rbp), %rcx
	call	_ZSt18uninitialized_copyIPKiPiET0_T_S4_S3_
	addq	$32, %rsp
	popq	%rbp
	ret
	.seh_endproc
	.section	.text$_ZSt8_DestroyIPiEvT_S1_,"x"
	.linkonce discard
	.globl	_ZSt8_DestroyIPiEvT_S1_
	.def	_ZSt8_DestroyIPiEvT_S1_;	.scl	2;	.type	32;	.endef
	.seh_proc	_ZSt8_DestroyIPiEvT_S1_
_ZSt8_DestroyIPiEvT_S1_:
.LFB9850:
	pushq	%rbp
	.seh_pushreg	%rbp
	movq	%rsp, %rbp
	.seh_setframe	%rbp, 0
	subq	$32, %rsp
	.seh_stackalloc	32
	.seh_endprologue
	movq	%rcx, 16(%rbp)
	movq	%rdx, 24(%rbp)
	movq	24(%rbp), %rax
	movq	%rax, %rdx
	movq	16(%rbp), %rcx
	call	_ZNSt12_Destroy_auxILb1EE9__destroyIPiEEvT_S3_
	nop
	addq	$32, %rsp
	popq	%rbp
	ret
	.seh_endproc
	.section	.text$_ZNSt8__detail4_ModIjLj0ELj1ELj0ELb1ELb0EE6__calcEj,"x"
	.linkonce discard
	.globl	_ZNSt8__detail4_ModIjLj0ELj1ELj0ELb1ELb0EE6__calcEj
	.def	_ZNSt8__detail4_ModIjLj0ELj1ELj0ELb1ELb0EE6__calcEj;	.scl	2;	.type	32;	.endef
	.seh_proc	_ZNSt8__detail4_ModIjLj0ELj1ELj0ELb1ELb0EE6__calcEj
_ZNSt8__detail4_ModIjLj0ELj1ELj0ELb1ELb0EE6__calcEj:
.LFB9954:
	pushq	%rbp
	.seh_pushreg	%rbp
	movq	%rsp, %rbp
	.seh_setframe	%rbp, 0
	subq	$16, %rsp
	.seh_stackalloc	16
	.seh_endprologue
	movl	%ecx, 16(%rbp)
	movl	16(%rbp), %eax
	movl	%eax, -4(%rbp)
	movl	-4(%rbp), %eax
	addq	$16, %rsp
	popq	%rbp
	ret
	.seh_endproc
	.section	.text$_ZNSt8__detail4_ModIjLj624ELj1ELj0ELb1ELb1EE6__calcEj,"x"
	.linkonce discard
	.globl	_ZNSt8__detail4_ModIjLj624ELj1ELj0ELb1ELb1EE6__calcEj
	.def	_ZNSt8__detail4_ModIjLj624ELj1ELj0ELb1ELb1EE6__calcEj;	.scl	2;	.type	32;	.endef
	.seh_proc	_ZNSt8__detail4_ModIjLj624ELj1ELj0ELb1ELb1EE6__calcEj
_ZNSt8__detail4_ModIjLj624ELj1ELj0ELb1ELb1EE6__calcEj:
.LFB9955:
	pushq	%rbp
	.seh_pushreg	%rbp
	movq	%rsp, %rbp
	.seh_setframe	%rbp, 0
	subq	$16, %rsp
	.seh_stackalloc	16
	.seh_endprologue
	movl	%ecx, 16(%rbp)
	movl	16(%rbp), %eax
	movl	%eax, -4(%rbp)
	movl	-4(%rbp), %ecx
	movl	%ecx, %eax
	shrl	$4, %eax
	movl	$440509467, %edx
	mull	%edx
	movl	%edx, %eax
	shrl	$2, %eax
	imull	$624, %eax, %eax
	subl	%eax, %ecx
	movl	%ecx, %eax
	movl	%eax, -4(%rbp)
	movl	-4(%rbp), %eax
	addq	$16, %rsp
	popq	%rbp
	ret
	.seh_endproc
	.section	.text$_ZSt18generate_canonicalIdLy53ESt23mersenne_twister_engineIjLy32ELy624ELy397ELy31ELj2567483615ELy11ELj4294967295ELy7ELj2636928640ELy15ELj4022730752ELy18ELj1812433253EEET_RT1_,"x"
	.linkonce discard
	.globl	_ZSt18generate_canonicalIdLy53ESt23mersenne_twister_engineIjLy32ELy624ELy397ELy31ELj2567483615ELy11ELj4294967295ELy7ELj2636928640ELy15ELj4022730752ELy18ELj1812433253EEET_RT1_
	.def	_ZSt18generate_canonicalIdLy53ESt23mersenne_twister_engineIjLy32ELy624ELy397ELy31ELj2567483615ELy11ELj4294967295ELy7ELj2636928640ELy15ELj4022730752ELy18ELj1812433253EEET_RT1_;	.scl	2;	.type	32;	.endef
	.seh_proc	_ZSt18generate_canonicalIdLy53ESt23mersenne_twister_engineIjLy32ELy624ELy397ELy31ELj2567483615ELy11ELj4294967295ELy7ELj2636928640ELy15ELj4022730752ELy18ELj1812433253EEET_RT1_
_ZSt18generate_canonicalIdLy53ESt23mersenne_twister_engineIjLy32ELy624ELy397ELy31ELj2567483615ELy11ELj4294967295ELy7ELj2636928640ELy15ELj4022730752ELy18ELj1812433253EEET_RT1_:
.LFB9956:
	pushq	%rbp
	.seh_pushreg	%rbp
	pushq	%rbx
	.seh_pushreg	%rbx
	subq	$136, %rsp
	.seh_stackalloc	136
	leaq	128(%rsp), %rbp
	.seh_setframe	%rbp, 128
	.seh_endprologue
	movq	%rcx, 32(%rbp)
	movq	$53, -40(%rbp)
	fldt	.LC6(%rip)
	fstpt	-64(%rbp)
	movq	$32, -72(%rbp)
	movq	$2, -80(%rbp)
	vxorpd	%xmm0, %xmm0, %xmm0
	vmovsd	%xmm0, -16(%rbp)
	vmovsd	.LC0(%rip), %xmm0
	vmovsd	%xmm0, -24(%rbp)
	movq	$2, -32(%rbp)
.L145:
	cmpq	$0, -32(%rbp)
	je	.L142
	movq	32(%rbp), %rcx
	call	_ZNSt23mersenne_twister_engineIjLy32ELy624ELy397ELy31ELj2567483615ELy11ELj4294967295ELy7ELj2636928640ELy15ELj4022730752ELy18ELj1812433253EEclEv
	movl	%eax, %ebx
	call	_ZNSt23mersenne_twister_engineIjLy32ELy624ELy397ELy31ELj2567483615ELy11ELj4294967295ELy7ELj2636928640ELy15ELj4022730752ELy18ELj1812433253EE3minEv
	subl	%eax, %ebx
	movl	%ebx, %eax
	movl	%eax, %eax
	testq	%rax, %rax
	js	.L143
	vcvtsi2sdq	%rax, %xmm0, %xmm0
	jmp	.L144
.L143:
	movq	%rax, %rdx
	shrq	%rdx
	andl	$1, %eax
	orq	%rax, %rdx
	vcvtsi2sdq	%rdx, %xmm0, %xmm0
	vaddsd	%xmm0, %xmm0, %xmm0
.L144:
	vmulsd	-24(%rbp), %xmm0, %xmm0
	vmovsd	-16(%rbp), %xmm1
	vaddsd	%xmm0, %xmm1, %xmm0
	vmovsd	%xmm0, -16(%rbp)
	fldl	-24(%rbp)
	fldt	.LC6(%rip)
	fmulp	%st, %st(1)
	fstpl	-24(%rbp)
	decq	-32(%rbp)
	jmp	.L145
.L142:
	vmovsd	-16(%rbp), %xmm0
	vdivsd	-24(%rbp), %xmm0, %xmm0
	vmovsd	%xmm0, -8(%rbp)
	vmovsd	-8(%rbp), %xmm0
	vmovsd	.LC0(%rip), %xmm1
	vcomisd	%xmm1, %xmm0
	setnb	%al
	movzbl	%al, %eax
	testl	%eax, %eax
	je	.L146
	movq	.LC0(%rip), %rax
	vxorpd	%xmm1, %xmm1, %xmm1
	vmovq	%rax, %xmm0
	call	nextafter
	vmovq	%xmm0, %rax
	movq	%rax, -8(%rbp)
.L146:
	vmovsd	-8(%rbp), %xmm0
	vmovq	%xmm0, %rax
	vmovq	%rax, %xmm0
	addq	$136, %rsp
	popq	%rbx
	popq	%rbp
	ret
	.seh_endproc
	.section	.text$_ZNSt23mersenne_twister_engineIjLy32ELy624ELy397ELy31ELj2567483615ELy11ELj4294967295ELy7ELj2636928640ELy15ELj4022730752ELy18ELj1812433253EE11_M_gen_randEv,"x"
	.linkonce discard
	.align 2
	.globl	_ZNSt23mersenne_twister_engineIjLy32ELy624ELy397ELy31ELj2567483615ELy11ELj4294967295ELy7ELj2636928640ELy15ELj4022730752ELy18ELj1812433253EE11_M_gen_randEv
	.def	_ZNSt23mersenne_twister_engineIjLy32ELy624ELy397ELy31ELj2567483615ELy11ELj4294967295ELy7ELj2636928640ELy15ELj4022730752ELy18ELj1812433253EE11_M_gen_randEv;	.scl	2;	.type	32;	.endef
	.seh_proc	_ZNSt23mersenne_twister_engineIjLy32ELy624ELy397ELy31ELj2567483615ELy11ELj4294967295ELy7ELj2636928640ELy15ELj4022730752ELy18ELj1812433253EE11_M_gen_randEv
_ZNSt23mersenne_twister_engineIjLy32ELy624ELy397ELy31ELj2567483615ELy11ELj4294967295ELy7ELj2636928640ELy15ELj4022730752ELy18ELj1812433253EE11_M_gen_randEv:
.LFB9957:
	pushq	%rbp
	.seh_pushreg	%rbp
	movq	%rsp, %rbp
	.seh_setframe	%rbp, 0
	subq	$48, %rsp
	.seh_stackalloc	48
	.seh_endprologue
	movq	%rcx, 16(%rbp)
	movl	$-2147483648, -20(%rbp)
	movl	$2147483647, -24(%rbp)
	movq	$0, -8(%rbp)
.L152:
	cmpq	$226, -8(%rbp)
	ja	.L149
	movq	16(%rbp), %rax
	movq	-8(%rbp), %rdx
	movl	(%rax,%rdx,4), %eax
	andl	$-2147483648, %eax
	movl	%eax, %ecx
	movq	-8(%rbp), %rax
	leaq	1(%rax), %rdx
	movq	16(%rbp), %rax
	movl	(%rax,%rdx,4), %eax
	andl	$2147483647, %eax
	orl	%ecx, %eax
	movl	%eax, -28(%rbp)
	movq	-8(%rbp), %rax
	leaq	397(%rax), %rdx
	movq	16(%rbp), %rax
	movl	(%rax,%rdx,4), %eax
	movl	-28(%rbp), %edx
	shrl	%edx
	xorl	%eax, %edx
	movl	-28(%rbp), %eax
	andl	$1, %eax
	testl	%eax, %eax
	je	.L150
	movl	$-1727483681, %eax
	jmp	.L151
.L150:
	movl	$0, %eax
.L151:
	xorl	%edx, %eax
	movl	%eax, %ecx
	movq	16(%rbp), %rax
	movq	-8(%rbp), %rdx
	movl	%ecx, (%rax,%rdx,4)
	incq	-8(%rbp)
	jmp	.L152
.L149:
	movq	$227, -16(%rbp)
.L156:
	cmpq	$622, -16(%rbp)
	ja	.L153
	movq	16(%rbp), %rax
	movq	-16(%rbp), %rdx
	movl	(%rax,%rdx,4), %eax
	andl	$-2147483648, %eax
	movl	%eax, %ecx
	movq	-16(%rbp), %rax
	leaq	1(%rax), %rdx
	movq	16(%rbp), %rax
	movl	(%rax,%rdx,4), %eax
	andl	$2147483647, %eax
	orl	%ecx, %eax
	movl	%eax, -32(%rbp)
	movq	-16(%rbp), %rax
	leaq	-227(%rax), %rdx
	movq	16(%rbp), %rax
	movl	(%rax,%rdx,4), %eax
	movl	-32(%rbp), %edx
	shrl	%edx
	xorl	%eax, %edx
	movl	-32(%rbp), %eax
	andl	$1, %eax
	testl	%eax, %eax
	je	.L154
	movl	$-1727483681, %eax
	jmp	.L155
.L154:
	movl	$0, %eax
.L155:
	xorl	%edx, %eax
	movl	%eax, %ecx
	movq	16(%rbp), %rax
	movq	-16(%rbp), %rdx
	movl	%ecx, (%rax,%rdx,4)
	incq	-16(%rbp)
	jmp	.L156
.L153:
	movq	16(%rbp), %rax
	movl	2492(%rax), %eax
	andl	$-2147483648, %eax
	movl	%eax, %edx
	movq	16(%rbp), %rax
	movl	(%rax), %eax
	andl	$2147483647, %eax
	orl	%edx, %eax
	movl	%eax, -36(%rbp)
	movq	16(%rbp), %rax
	movl	1584(%rax), %eax
	movl	-36(%rbp), %edx
	shrl	%edx
	xorl	%eax, %edx
	movl	-36(%rbp), %eax
	andl	$1, %eax
	testl	%eax, %eax
	je	.L157
	movl	$-1727483681, %eax
	jmp	.L158
.L157:
	movl	$0, %eax
.L158:
	xorl	%eax, %edx
	movq	16(%rbp), %rax
	movl	%edx, 2492(%rax)
	movq	16(%rbp), %rax
	movq	$0, 2496(%rax)
	nop
	addq	$48, %rsp
	popq	%rbp
	ret
	.seh_endproc
	.section	.text$_ZNSaIiEC2ERKS_,"x"
	.linkonce discard
	.align 2
	.globl	_ZNSaIiEC2ERKS_
	.def	_ZNSaIiEC2ERKS_;	.scl	2;	.type	32;	.endef
	.seh_proc	_ZNSaIiEC2ERKS_
_ZNSaIiEC2ERKS_:
.LFB9959:
	pushq	%rbp
	.seh_pushreg	%rbp
	movq	%rsp, %rbp
	.seh_setframe	%rbp, 0
	subq	$32, %rsp
	.seh_stackalloc	32
	.seh_endprologue
	movq	%rcx, 16(%rbp)
	movq	%rdx, 24(%rbp)
	movq	24(%rbp), %rax
	movq	%rax, %rdx
	movq	16(%rbp), %rcx
	call	_ZN9__gnu_cxx13new_allocatorIiEC2ERKS1_
	nop
	addq	$32, %rsp
	popq	%rbp
	ret
	.seh_endproc
	.section	.text$_ZNSt16allocator_traitsISaIiEE10deallocateERS0_Piy,"x"
	.linkonce discard
	.globl	_ZNSt16allocator_traitsISaIiEE10deallocateERS0_Piy
	.def	_ZNSt16allocator_traitsISaIiEE10deallocateERS0_Piy;	.scl	2;	.type	32;	.endef
	.seh_proc	_ZNSt16allocator_traitsISaIiEE10deallocateERS0_Piy
_ZNSt16allocator_traitsISaIiEE10deallocateERS0_Piy:
.LFB9961:
	pushq	%rbp
	.seh_pushreg	%rbp
	movq	%rsp, %rbp
	.seh_setframe	%rbp, 0
	subq	$32, %rsp
	.seh_stackalloc	32
	.seh_endprologue
	movq	%rcx, 16(%rbp)
	movq	%rdx, 24(%rbp)
	movq	%r8, 32(%rbp)
	movq	32(%rbp), %rdx
	movq	24(%rbp), %rax
	movq	%rdx, %r8
	movq	%rax, %rdx
	movq	16(%rbp), %rcx
	call	_ZN9__gnu_cxx13new_allocatorIiE10deallocateEPiy
	nop
	addq	$32, %rsp
	popq	%rbp
	ret
	.seh_endproc
	.section	.text$_ZSt19__iterator_categoryIPKiENSt15iterator_traitsIT_E17iterator_categoryERKS3_,"x"
	.linkonce discard
	.globl	_ZSt19__iterator_categoryIPKiENSt15iterator_traitsIT_E17iterator_categoryERKS3_
	.def	_ZSt19__iterator_categoryIPKiENSt15iterator_traitsIT_E17iterator_categoryERKS3_;	.scl	2;	.type	32;	.endef
	.seh_proc	_ZSt19__iterator_categoryIPKiENSt15iterator_traitsIT_E17iterator_categoryERKS3_
_ZSt19__iterator_categoryIPKiENSt15iterator_traitsIT_E17iterator_categoryERKS3_:
.LFB9962:
	pushq	%rbp
	.seh_pushreg	%rbp
	movq	%rsp, %rbp
	.seh_setframe	%rbp, 0
	.seh_endprologue
	movq	%rcx, 16(%rbp)
	popq	%rbp
	ret
	.seh_endproc
	.section	.text$_ZSt10__distanceIPKiENSt15iterator_traitsIT_E15difference_typeES3_S3_St26random_access_iterator_tag,"x"
	.linkonce discard
	.globl	_ZSt10__distanceIPKiENSt15iterator_traitsIT_E15difference_typeES3_S3_St26random_access_iterator_tag
	.def	_ZSt10__distanceIPKiENSt15iterator_traitsIT_E15difference_typeES3_S3_St26random_access_iterator_tag;	.scl	2;	.type	32;	.endef
	.seh_proc	_ZSt10__distanceIPKiENSt15iterator_traitsIT_E15difference_typeES3_S3_St26random_access_iterator_tag
_ZSt10__distanceIPKiENSt15iterator_traitsIT_E15difference_typeES3_S3_St26random_access_iterator_tag:
.LFB9963:
	pushq	%rbp
	.seh_pushreg	%rbp
	movq	%rsp, %rbp
	.seh_setframe	%rbp, 0
	.seh_endprologue
	movq	%rcx, 16(%rbp)
	movq	%rdx, 24(%rbp)
	movb	%r8b, 32(%rbp)
	movq	24(%rbp), %rax
	subq	16(%rbp), %rax
	sarq	$2, %rax
	popq	%rbp
	ret
	.seh_endproc
	.section	.text$_ZNSt16allocator_traitsISaIiEE8allocateERS0_y,"x"
	.linkonce discard
	.globl	_ZNSt16allocator_traitsISaIiEE8allocateERS0_y
	.def	_ZNSt16allocator_traitsISaIiEE8allocateERS0_y;	.scl	2;	.type	32;	.endef
	.seh_proc	_ZNSt16allocator_traitsISaIiEE8allocateERS0_y
_ZNSt16allocator_traitsISaIiEE8allocateERS0_y:
.LFB9964:
	pushq	%rbp
	.seh_pushreg	%rbp
	movq	%rsp, %rbp
	.seh_setframe	%rbp, 0
	subq	$32, %rsp
	.seh_stackalloc	32
	.seh_endprologue
	movq	%rcx, 16(%rbp)
	movq	%rdx, 24(%rbp)
	movq	24(%rbp), %rax
	movl	$0, %r8d
	movq	%rax, %rdx
	movq	16(%rbp), %rcx
	call	_ZN9__gnu_cxx13new_allocatorIiE8allocateEyPKv
	addq	$32, %rsp
	popq	%rbp
	ret
	.seh_endproc
	.section	.text$_ZSt18uninitialized_copyIPKiPiET0_T_S4_S3_,"x"
	.linkonce discard
	.globl	_ZSt18uninitialized_copyIPKiPiET0_T_S4_S3_
	.def	_ZSt18uninitialized_copyIPKiPiET0_T_S4_S3_;	.scl	2;	.type	32;	.endef
	.seh_proc	_ZSt18uninitialized_copyIPKiPiET0_T_S4_S3_
_ZSt18uninitialized_copyIPKiPiET0_T_S4_S3_:
.LFB9965:
	pushq	%rbp
	.seh_pushreg	%rbp
	movq	%rsp, %rbp
	.seh_setframe	%rbp, 0
	subq	$48, %rsp
	.seh_stackalloc	48
	.seh_endprologue
	movq	%rcx, 16(%rbp)
	movq	%rdx, 24(%rbp)
	movq	%r8, 32(%rbp)
	movb	$1, -1(%rbp)
	movq	32(%rbp), %rdx
	movq	24(%rbp), %rax
	movq	%rdx, %r8
	movq	%rax, %rdx
	movq	16(%rbp), %rcx
	call	_ZNSt20__uninitialized_copyILb1EE13__uninit_copyIPKiPiEET0_T_S6_S5_
	addq	$48, %rsp
	popq	%rbp
	ret
	.seh_endproc
	.section	.text$_ZNSt12_Destroy_auxILb1EE9__destroyIPiEEvT_S3_,"x"
	.linkonce discard
	.globl	_ZNSt12_Destroy_auxILb1EE9__destroyIPiEEvT_S3_
	.def	_ZNSt12_Destroy_auxILb1EE9__destroyIPiEEvT_S3_;	.scl	2;	.type	32;	.endef
	.seh_proc	_ZNSt12_Destroy_auxILb1EE9__destroyIPiEEvT_S3_
_ZNSt12_Destroy_auxILb1EE9__destroyIPiEEvT_S3_:
.LFB9966:
	pushq	%rbp
	.seh_pushreg	%rbp
	movq	%rsp, %rbp
	.seh_setframe	%rbp, 0
	.seh_endprologue
	movq	%rcx, 16(%rbp)
	movq	%rdx, 24(%rbp)
	nop
	popq	%rbp
	ret
	.seh_endproc
	.section	.text$_ZN9__gnu_cxx13new_allocatorIiEC2ERKS1_,"x"
	.linkonce discard
	.align 2
	.globl	_ZN9__gnu_cxx13new_allocatorIiEC2ERKS1_
	.def	_ZN9__gnu_cxx13new_allocatorIiEC2ERKS1_;	.scl	2;	.type	32;	.endef
	.seh_proc	_ZN9__gnu_cxx13new_allocatorIiEC2ERKS1_
_ZN9__gnu_cxx13new_allocatorIiEC2ERKS1_:
.LFB10038:
	pushq	%rbp
	.seh_pushreg	%rbp
	movq	%rsp, %rbp
	.seh_setframe	%rbp, 0
	.seh_endprologue
	movq	%rcx, 16(%rbp)
	movq	%rdx, 24(%rbp)
	nop
	popq	%rbp
	ret
	.seh_endproc
	.section	.text$_ZN9__gnu_cxx13new_allocatorIiE10deallocateEPiy,"x"
	.linkonce discard
	.align 2
	.globl	_ZN9__gnu_cxx13new_allocatorIiE10deallocateEPiy
	.def	_ZN9__gnu_cxx13new_allocatorIiE10deallocateEPiy;	.scl	2;	.type	32;	.endef
	.seh_proc	_ZN9__gnu_cxx13new_allocatorIiE10deallocateEPiy
_ZN9__gnu_cxx13new_allocatorIiE10deallocateEPiy:
.LFB10040:
	pushq	%rbp
	.seh_pushreg	%rbp
	movq	%rsp, %rbp
	.seh_setframe	%rbp, 0
	subq	$32, %rsp
	.seh_stackalloc	32
	.seh_endprologue
	movq	%rcx, 16(%rbp)
	movq	%rdx, 24(%rbp)
	movq	%r8, 32(%rbp)
	movq	24(%rbp), %rax
	movq	%rax, %rcx
	call	_ZdlPv
	nop
	addq	$32, %rsp
	popq	%rbp
	ret
	.seh_endproc
	.section	.text$_ZN9__gnu_cxx13new_allocatorIiE8allocateEyPKv,"x"
	.linkonce discard
	.align 2
	.globl	_ZN9__gnu_cxx13new_allocatorIiE8allocateEyPKv
	.def	_ZN9__gnu_cxx13new_allocatorIiE8allocateEyPKv;	.scl	2;	.type	32;	.endef
	.seh_proc	_ZN9__gnu_cxx13new_allocatorIiE8allocateEyPKv
_ZN9__gnu_cxx13new_allocatorIiE8allocateEyPKv:
.LFB10041:
	pushq	%rbp
	.seh_pushreg	%rbp
	movq	%rsp, %rbp
	.seh_setframe	%rbp, 0
	subq	$32, %rsp
	.seh_stackalloc	32
	.seh_endprologue
	movq	%rcx, 16(%rbp)
	movq	%rdx, 24(%rbp)
	movq	%r8, 32(%rbp)
	movq	16(%rbp), %rcx
	call	_ZNK9__gnu_cxx13new_allocatorIiE8max_sizeEv
	cmpq	%rax, 24(%rbp)
	seta	%al
	testb	%al, %al
	je	.L173
	call	_ZSt17__throw_bad_allocv
.L173:
	movq	24(%rbp), %rax
	salq	$2, %rax
	movq	%rax, %rcx
	call	_Znwy
	addq	$32, %rsp
	popq	%rbp
	ret
	.seh_endproc
	.section	.text$_ZNSt20__uninitialized_copyILb1EE13__uninit_copyIPKiPiEET0_T_S6_S5_,"x"
	.linkonce discard
	.globl	_ZNSt20__uninitialized_copyILb1EE13__uninit_copyIPKiPiEET0_T_S6_S5_
	.def	_ZNSt20__uninitialized_copyILb1EE13__uninit_copyIPKiPiEET0_T_S6_S5_;	.scl	2;	.type	32;	.endef
	.seh_proc	_ZNSt20__uninitialized_copyILb1EE13__uninit_copyIPKiPiEET0_T_S6_S5_
_ZNSt20__uninitialized_copyILb1EE13__uninit_copyIPKiPiEET0_T_S6_S5_:
.LFB10042:
	pushq	%rbp
	.seh_pushreg	%rbp
	movq	%rsp, %rbp
	.seh_setframe	%rbp, 0
	subq	$32, %rsp
	.seh_stackalloc	32
	.seh_endprologue
	movq	%rcx, 16(%rbp)
	movq	%rdx, 24(%rbp)
	movq	%r8, 32(%rbp)
	movq	32(%rbp), %rdx
	movq	24(%rbp), %rax
	movq	%rdx, %r8
	movq	%rax, %rdx
	movq	16(%rbp), %rcx
	call	_ZSt4copyIPKiPiET0_T_S4_S3_
	addq	$32, %rsp
	popq	%rbp
	ret
	.seh_endproc
	.section	.text$_ZNK9__gnu_cxx13new_allocatorIiE8max_sizeEv,"x"
	.linkonce discard
	.align 2
	.globl	_ZNK9__gnu_cxx13new_allocatorIiE8max_sizeEv
	.def	_ZNK9__gnu_cxx13new_allocatorIiE8max_sizeEv;	.scl	2;	.type	32;	.endef
	.seh_proc	_ZNK9__gnu_cxx13new_allocatorIiE8max_sizeEv
_ZNK9__gnu_cxx13new_allocatorIiE8max_sizeEv:
.LFB10134:
	pushq	%rbp
	.seh_pushreg	%rbp
	movq	%rsp, %rbp
	.seh_setframe	%rbp, 0
	.seh_endprologue
	movq	%rcx, 16(%rbp)
	movabsq	$4611686018427387903, %rax
	popq	%rbp
	ret
	.seh_endproc
	.section	.text$_ZSt4copyIPKiPiET0_T_S4_S3_,"x"
	.linkonce discard
	.globl	_ZSt4copyIPKiPiET0_T_S4_S3_
	.def	_ZSt4copyIPKiPiET0_T_S4_S3_;	.scl	2;	.type	32;	.endef
	.seh_proc	_ZSt4copyIPKiPiET0_T_S4_S3_
_ZSt4copyIPKiPiET0_T_S4_S3_:
.LFB10135:
	pushq	%rbp
	.seh_pushreg	%rbp
	pushq	%rbx
	.seh_pushreg	%rbx
	subq	$40, %rsp
	.seh_stackalloc	40
	leaq	128(%rsp), %rbp
	.seh_setframe	%rbp, 128
	.seh_endprologue
	movq	%rcx, -64(%rbp)
	movq	%rdx, -56(%rbp)
	movq	%r8, -48(%rbp)
	movq	-56(%rbp), %rax
	movq	%rax, %rcx
	call	_ZSt12__miter_baseIPKiET_S2_
	movq	%rax, %rbx
	movq	-64(%rbp), %rcx
	call	_ZSt12__miter_baseIPKiET_S2_
	movq	%rax, %rcx
	movq	-48(%rbp), %rax
	movq	%rax, %r8
	movq	%rbx, %rdx
	call	_ZSt14__copy_move_a2ILb0EPKiPiET1_T0_S4_S3_
	addq	$40, %rsp
	popq	%rbx
	popq	%rbp
	ret
	.seh_endproc
	.section	.text$_ZSt12__miter_baseIPKiET_S2_,"x"
	.linkonce discard
	.globl	_ZSt12__miter_baseIPKiET_S2_
	.def	_ZSt12__miter_baseIPKiET_S2_;	.scl	2;	.type	32;	.endef
	.seh_proc	_ZSt12__miter_baseIPKiET_S2_
_ZSt12__miter_baseIPKiET_S2_:
.LFB10193:
	pushq	%rbp
	.seh_pushreg	%rbp
	movq	%rsp, %rbp
	.seh_setframe	%rbp, 0
	.seh_endprologue
	movq	%rcx, 16(%rbp)
	movq	16(%rbp), %rax
	popq	%rbp
	ret
	.seh_endproc
	.section	.text$_ZSt14__copy_move_a2ILb0EPKiPiET1_T0_S4_S3_,"x"
	.linkonce discard
	.globl	_ZSt14__copy_move_a2ILb0EPKiPiET1_T0_S4_S3_
	.def	_ZSt14__copy_move_a2ILb0EPKiPiET1_T0_S4_S3_;	.scl	2;	.type	32;	.endef
	.seh_proc	_ZSt14__copy_move_a2ILb0EPKiPiET1_T0_S4_S3_
_ZSt14__copy_move_a2ILb0EPKiPiET1_T0_S4_S3_:
.LFB10194:
	pushq	%rbp
	.seh_pushreg	%rbp
	pushq	%rsi
	.seh_pushreg	%rsi
	pushq	%rbx
	.seh_pushreg	%rbx
	movq	%rsp, %rbp
	.seh_setframe	%rbp, 0
	subq	$32, %rsp
	.seh_stackalloc	32
	.seh_endprologue
	movq	%rcx, 32(%rbp)
	movq	%rdx, 40(%rbp)
	movq	%r8, 48(%rbp)
	movq	48(%rbp), %rax
	movq	%rax, %rcx
	call	_ZSt12__niter_baseIPiET_S1_
	movq	%rax, %rsi
	movq	40(%rbp), %rax
	movq	%rax, %rcx
	call	_ZSt12__niter_baseIPKiET_S2_
	movq	%rax, %rbx
	movq	32(%rbp), %rcx
	call	_ZSt12__niter_baseIPKiET_S2_
	movq	%rsi, %r8
	movq	%rbx, %rdx
	movq	%rax, %rcx
	call	_ZSt13__copy_move_aILb0EPKiPiET1_T0_S4_S3_
	addq	$32, %rsp
	popq	%rbx
	popq	%rsi
	popq	%rbp
	ret
	.seh_endproc
	.section	.text$_ZSt12__niter_baseIPKiET_S2_,"x"
	.linkonce discard
	.globl	_ZSt12__niter_baseIPKiET_S2_
	.def	_ZSt12__niter_baseIPKiET_S2_;	.scl	2;	.type	32;	.endef
	.seh_proc	_ZSt12__niter_baseIPKiET_S2_
_ZSt12__niter_baseIPKiET_S2_:
.LFB10214:
	pushq	%rbp
	.seh_pushreg	%rbp
	movq	%rsp, %rbp
	.seh_setframe	%rbp, 0
	.seh_endprologue
	movq	%rcx, 16(%rbp)
	movq	16(%rbp), %rax
	popq	%rbp
	ret
	.seh_endproc
	.section	.text$_ZSt12__niter_baseIPiET_S1_,"x"
	.linkonce discard
	.globl	_ZSt12__niter_baseIPiET_S1_
	.def	_ZSt12__niter_baseIPiET_S1_;	.scl	2;	.type	32;	.endef
	.seh_proc	_ZSt12__niter_baseIPiET_S1_
_ZSt12__niter_baseIPiET_S1_:
.LFB10215:
	pushq	%rbp
	.seh_pushreg	%rbp
	movq	%rsp, %rbp
	.seh_setframe	%rbp, 0
	.seh_endprologue
	movq	%rcx, 16(%rbp)
	movq	16(%rbp), %rax
	popq	%rbp
	ret
	.seh_endproc
	.section	.text$_ZSt13__copy_move_aILb0EPKiPiET1_T0_S4_S3_,"x"
	.linkonce discard
	.globl	_ZSt13__copy_move_aILb0EPKiPiET1_T0_S4_S3_
	.def	_ZSt13__copy_move_aILb0EPKiPiET1_T0_S4_S3_;	.scl	2;	.type	32;	.endef
	.seh_proc	_ZSt13__copy_move_aILb0EPKiPiET1_T0_S4_S3_
_ZSt13__copy_move_aILb0EPKiPiET1_T0_S4_S3_:
.LFB10216:
	pushq	%rbp
	.seh_pushreg	%rbp
	movq	%rsp, %rbp
	.seh_setframe	%rbp, 0
	subq	$48, %rsp
	.seh_stackalloc	48
	.seh_endprologue
	movq	%rcx, 16(%rbp)
	movq	%rdx, 24(%rbp)
	movq	%r8, 32(%rbp)
	movb	$1, -1(%rbp)
	movq	32(%rbp), %rdx
	movq	24(%rbp), %rax
	movq	%rdx, %r8
	movq	%rax, %rdx
	movq	16(%rbp), %rcx
	call	_ZNSt11__copy_moveILb0ELb1ESt26random_access_iterator_tagE8__copy_mIiEEPT_PKS3_S6_S4_
	addq	$48, %rsp
	popq	%rbp
	ret
	.seh_endproc
	.section	.text$_ZNSt11__copy_moveILb0ELb1ESt26random_access_iterator_tagE8__copy_mIiEEPT_PKS3_S6_S4_,"x"
	.linkonce discard
	.globl	_ZNSt11__copy_moveILb0ELb1ESt26random_access_iterator_tagE8__copy_mIiEEPT_PKS3_S6_S4_
	.def	_ZNSt11__copy_moveILb0ELb1ESt26random_access_iterator_tagE8__copy_mIiEEPT_PKS3_S6_S4_;	.scl	2;	.type	32;	.endef
	.seh_proc	_ZNSt11__copy_moveILb0ELb1ESt26random_access_iterator_tagE8__copy_mIiEEPT_PKS3_S6_S4_
_ZNSt11__copy_moveILb0ELb1ESt26random_access_iterator_tagE8__copy_mIiEEPT_PKS3_S6_S4_:
.LFB10219:
	pushq	%rbp
	.seh_pushreg	%rbp
	movq	%rsp, %rbp
	.seh_setframe	%rbp, 0
	subq	$48, %rsp
	.seh_stackalloc	48
	.seh_endprologue
	movq	%rcx, 16(%rbp)
	movq	%rdx, 24(%rbp)
	movq	%r8, 32(%rbp)
	movq	24(%rbp), %rax
	subq	16(%rbp), %rax
	sarq	$2, %rax
	movq	%rax, -8(%rbp)
	cmpq	$0, -8(%rbp)
	je	.L192
	movq	-8(%rbp), %rax
	leaq	0(,%rax,4), %rdx
	movq	32(%rbp), %rax
	movq	%rdx, %r8
	movq	16(%rbp), %rdx
	movq	%rax, %rcx
	call	memmove
.L192:
	movq	-8(%rbp), %rax
	leaq	0(,%rax,4), %rdx
	movq	32(%rbp), %rax
	addq	%rdx, %rax
	addq	$48, %rsp
	popq	%rbp
	ret
	.seh_endproc
	.text
	.def	__tcf_0;	.scl	3;	.type	32;	.endef
	.seh_proc	__tcf_0
__tcf_0:
.LFB10245:
	pushq	%rbp
	.seh_pushreg	%rbp
	movq	%rsp, %rbp
	.seh_setframe	%rbp, 0
	subq	$32, %rsp
	.seh_stackalloc	32
	.seh_endprologue
	leaq	_ZStL8__ioinit(%rip), %rcx
	call	_ZNSt8ios_base4InitD1Ev
	nop
	addq	$32, %rsp
	popq	%rbp
	ret
	.seh_endproc
	.def	_Z41__static_initialization_and_destruction_0ii;	.scl	3;	.type	32;	.endef
	.seh_proc	_Z41__static_initialization_and_destruction_0ii
_Z41__static_initialization_and_destruction_0ii:
.LFB10244:
	pushq	%rbp
	.seh_pushreg	%rbp
	movq	%rsp, %rbp
	.seh_setframe	%rbp, 0
	subq	$32, %rsp
	.seh_stackalloc	32
	.seh_endprologue
	movl	%ecx, 16(%rbp)
	movl	%edx, 24(%rbp)
	cmpl	$1, 16(%rbp)
	jne	.L197
	cmpl	$65535, 24(%rbp)
	jne	.L197
	leaq	_ZStL8__ioinit(%rip), %rcx
	call	_ZNSt8ios_base4InitC1Ev
	leaq	__tcf_0(%rip), %rcx
	call	atexit
	movl	$0, %ecx
	call	time
	movl	%eax, %edx
	leaq	_ZL3gen(%rip), %rcx
	call	_ZNSt23mersenne_twister_engineIjLy32ELy624ELy397ELy31ELj2567483615ELy11ELj4294967295ELy7ELj2636928640ELy15ELj4022730752ELy18ELj1812433253EEC1Ej
.L197:
	nop
	addq	$32, %rsp
	popq	%rbp
	ret
	.seh_endproc
	.section .rdata,"dr"
	.align 16
._72:
	.long	200
	.long	500
	.long	1000
	.long	2000
	.long	3000
	.text
	.def	_GLOBAL__sub_I__Z16get_random_floatv;	.scl	3;	.type	32;	.endef
	.seh_proc	_GLOBAL__sub_I__Z16get_random_floatv
_GLOBAL__sub_I__Z16get_random_floatv:
.LFB10268:
	pushq	%rbp
	.seh_pushreg	%rbp
	movq	%rsp, %rbp
	.seh_setframe	%rbp, 0
	subq	$32, %rsp
	.seh_stackalloc	32
	.seh_endprologue
	movl	$65535, %edx
	movl	$1, %ecx
	call	_Z41__static_initialization_and_destruction_0ii
	nop
	addq	$32, %rsp
	popq	%rbp
	ret
	.seh_endproc
	.section	.ctors,"w"
	.align 8
	.quad	_GLOBAL__sub_I__Z16get_random_floatv
	.text
	.def	_Z2LUv._omp_fn.0;	.scl	3;	.type	32;	.endef
	.seh_proc	_Z2LUv._omp_fn.0
_Z2LUv._omp_fn.0:
.LFB10269:
	pushq	%rbp
	.seh_pushreg	%rbp
	pushq	%rdi
	.seh_pushreg	%rdi
	pushq	%rsi
	.seh_pushreg	%rsi
	pushq	%rbx
	.seh_pushreg	%rbx
	subq	$56, %rsp
	.seh_stackalloc	56
	leaq	128(%rsp), %rbp
	.seh_setframe	%rbp, 128
	.seh_endprologue
	movq	%rcx, -32(%rbp)
	movl	$0, -84(%rbp)
.L207:
	movl	n(%rip), %eax
	cmpl	%eax, -84(%rbp)
	jge	.L211
	call	GOMP_single_start
	cmpb	$1, %al
	je	.L201
.L209:
	call	GOMP_barrier
	movl	-84(%rbp), %eax
	leal	1(%rax), %ebx
	movl	n(%rip), %edi
	call	omp_get_num_threads
	movl	%eax, %esi
	call	omp_get_thread_num
	movl	%eax, %r9d
	subl	%ebx, %edi
	movl	%edi, %r8d
	movl	%r8d, %eax
	cltd
	idivl	%esi
	movl	%eax, %ecx
	movl	%r8d, %eax
	cltd
	idivl	%esi
	movl	%edx, %eax
	cmpl	%eax, %r9d
	jl	.L202
.L208:
	movl	%r9d, %edx
	imull	%ecx, %edx
	addl	%edx, %eax
	leal	(%rax,%rcx), %edx
	cmpl	%edx, %eax
	jge	.L203
	addl	%ebx, %eax
	movl	%eax, -88(%rbp)
	leal	(%rdx,%rbx), %ecx
.L205:
	movq	A(%rip), %rax
	movl	-88(%rbp), %edx
	movslq	%edx, %rdx
	salq	$3, %rdx
	addq	%rdx, %rax
	movq	(%rax), %rax
	movl	-84(%rbp), %edx
	movslq	%edx, %rdx
	salq	$2, %rdx
	addq	%rdx, %rax
	vmovss	(%rax), %xmm0
	vmovss	%xmm0, -96(%rbp)
	movl	-84(%rbp), %eax
	movl	%eax, -92(%rbp)
.L206:
	movl	n(%rip), %eax
	cmpl	%eax, -92(%rbp)
	jl	.L204
	incl	-88(%rbp)
	cmpl	%ecx, -88(%rbp)
	jl	.L205
	jmp	.L203
.L204:
	movq	A(%rip), %rax
	movl	-88(%rbp), %edx
	movslq	%edx, %rdx
	salq	$3, %rdx
	addq	%rdx, %rax
	movq	(%rax), %rax
	movl	-92(%rbp), %edx
	movslq	%edx, %rdx
	salq	$2, %rdx
	addq	%rdx, %rax
	vmovss	(%rax), %xmm1
	movq	A(%rip), %rax
	movl	-84(%rbp), %edx
	movslq	%edx, %rdx
	salq	$3, %rdx
	addq	%rdx, %rax
	movq	(%rax), %rax
	movl	-92(%rbp), %edx
	movslq	%edx, %rdx
	salq	$2, %rdx
	addq	%rdx, %rax
	vmovss	(%rax), %xmm0
	vmulss	-96(%rbp), %xmm0, %xmm0
	movq	A(%rip), %rax
	movl	-88(%rbp), %edx
	movslq	%edx, %rdx
	salq	$3, %rdx
	addq	%rdx, %rax
	movq	(%rax), %rax
	movl	-92(%rbp), %edx
	movslq	%edx, %rdx
	salq	$2, %rdx
	addq	%rdx, %rax
	vsubss	%xmm0, %xmm1, %xmm0
	vmovss	%xmm0, (%rax)
	incl	-92(%rbp)
	jmp	.L206
.L203:
	call	GOMP_barrier
	incl	-84(%rbp)
	jmp	.L207
.L202:
	movl	$0, %eax
	incl	%ecx
	jmp	.L208
.L201:
	movq	A(%rip), %rax
	movl	-84(%rbp), %edx
	movslq	%edx, %rdx
	salq	$3, %rdx
	addq	%rdx, %rax
	movq	(%rax), %rax
	movl	-84(%rbp), %edx
	movslq	%edx, %rdx
	salq	$2, %rdx
	addq	%rdx, %rax
	vmovss	(%rax), %xmm0
	vmovss	%xmm0, -96(%rbp)
	movl	-84(%rbp), %eax
	movl	%eax, -92(%rbp)
.L210:
	movl	n(%rip), %eax
	cmpl	%eax, -92(%rbp)
	jge	.L209
	movq	A(%rip), %rax
	movl	-84(%rbp), %edx
	movslq	%edx, %rdx
	salq	$3, %rdx
	addq	%rdx, %rax
	movq	(%rax), %rax
	movl	-92(%rbp), %edx
	movslq	%edx, %rdx
	salq	$2, %rdx
	addq	%rdx, %rax
	vmovss	(%rax), %xmm0
	movq	A(%rip), %rax
	movl	-84(%rbp), %edx
	movslq	%edx, %rdx
	salq	$3, %rdx
	addq	%rdx, %rax
	movq	(%rax), %rax
	movl	-92(%rbp), %edx
	movslq	%edx, %rdx
	salq	$2, %rdx
	addq	%rdx, %rax
	vdivss	-96(%rbp), %xmm0, %xmm0
	vmovss	%xmm0, (%rax)
	incl	-92(%rbp)
	jmp	.L210
.L211:
	addq	$56, %rsp
	popq	%rbx
	popq	%rsi
	popq	%rdi
	popq	%rbp
	ret
	.seh_endproc
	.section .rdata,"dr"
	.align 8
.LC0:
	.long	0
	.long	1072693248
	.align 8
.LC5:
	.long	0
	.long	1093567616
	.align 16
.LC6:
	.long	0
	.long	-2147483648
	.long	16415
	.long	0
	.ident	"GCC: (x86_64-posix-seh, Built by strawberryperl.com project) 8.3.0"
	.def	_ZNSolsEf;	.scl	2;	.type	32;	.endef
	.def	_ZStlsISt11char_traitsIcEERSt13basic_ostreamIcT_ES5_c;	.scl	2;	.type	32;	.endef
	.def	_ZNSolsEPFRSoS_E;	.scl	2;	.type	32;	.endef
	.def	GOMP_parallel;	.scl	2;	.type	32;	.endef
	.def	_Znay;	.scl	2;	.type	32;	.endef
	.def	__cxa_throw_bad_array_new_length;	.scl	2;	.type	32;	.endef
	.def	_ZNSt6chrono3_V212system_clock3nowEv;	.scl	2;	.type	32;	.endef
	.def	_ZStlsISt11char_traitsIcEERSt13basic_ostreamIcT_ES5_PKc;	.scl	2;	.type	32;	.endef
	.def	_ZNSolsEi;	.scl	2;	.type	32;	.endef
	.def	_ZNSolsEd;	.scl	2;	.type	32;	.endef
	.def	_ZdaPv;	.scl	2;	.type	32;	.endef
	.def	_Unwind_Resume;	.scl	2;	.type	32;	.endef
	.def	nextafter;	.scl	2;	.type	32;	.endef
	.def	_ZdlPv;	.scl	2;	.type	32;	.endef
	.def	_ZSt17__throw_bad_allocv;	.scl	2;	.type	32;	.endef
	.def	_Znwy;	.scl	2;	.type	32;	.endef
	.def	memmove;	.scl	2;	.type	32;	.endef
	.def	_ZNSt8ios_base4InitD1Ev;	.scl	2;	.type	32;	.endef
	.def	_ZNSt8ios_base4InitC1Ev;	.scl	2;	.type	32;	.endef
	.def	atexit;	.scl	2;	.type	32;	.endef
	.def	time;	.scl	2;	.type	32;	.endef
	.def	GOMP_single_start;	.scl	2;	.type	32;	.endef
	.def	GOMP_barrier;	.scl	2;	.type	32;	.endef
	.def	omp_get_num_threads;	.scl	2;	.type	32;	.endef
	.def	omp_get_thread_num;	.scl	2;	.type	32;	.endef
	.section	.rdata$.refptr._ZSt4endlIcSt11char_traitsIcEERSt13basic_ostreamIT_T0_ES6_, "dr"
	.globl	.refptr._ZSt4endlIcSt11char_traitsIcEERSt13basic_ostreamIT_T0_ES6_
	.linkonce	discard
.refptr._ZSt4endlIcSt11char_traitsIcEERSt13basic_ostreamIT_T0_ES6_:
	.quad	_ZSt4endlIcSt11char_traitsIcEERSt13basic_ostreamIT_T0_ES6_
	.section	.rdata$.refptr._ZSt4cout, "dr"
	.globl	.refptr._ZSt4cout
	.linkonce	discard
.refptr._ZSt4cout:
	.quad	_ZSt4cout
